ASxxxx Linker V03.00 + NoICE + sdld,  page 1.
Hexadecimal  [32-Bits]

Area                                    Addr        Size        Decimal Bytes (Attributes)
--------------------------------        ----        ----        ------- ----- ------------
CABS                                00000000    00000000 =           0. bytes (ABS,CON,CODE)

      Value  Global                              Global Defined In Module
      -----  --------------------------------   ------------------------
C:   00000000  l_BIT_BANK                      
C:   00000000  l_BSEG                          
C:   00000000  l_BSEG_BYTES                    
C:   00000000  l_CABS                          
C:   00000000  l_GSINIT1                       
C:   00000000  l_GSINIT5                       
C:   00000000  l_IABS                          
C:   00000000  l_ISEG                          
C:   00000000  l_OSEG                          
C:   00000000  l_PSEG                          
C:   00000000  l_REG_BANK_1                    
C:   00000000  l_REG_BANK_2                    
C:   00000000  l_REG_BANK_3                    
C:   00000000  l_RSEG                          
C:   00000000  l_RSEG0                         
C:   00000000  l_RSEG1                         
C:   00000000  l_XABS                          
C:   00000000  l__CODE                         
C:   00000000  s_BSEG                          
C:   00000000  s_CABS                          
C:   00000000  s_DSEG                          
C:   00000000  s_HOME                          
C:   00000000  s_IABS                          
C:   00000000  s_ISEG                          
C:   00000000  s_PSEG                          
C:   00000000  s_REG_BANK_0                    
C:   00000000  s_RSEG                          
C:   00000000  s_RSEG0                         
C:   00000000  s_RSEG1                         
C:   00000000  s_XABS                          
C:   00000000  s_XSEG                          
C:   00000003  l_GSFINAL                       
C:   00000003  l_GSINIT0                       
C:   00000006  l_HOME                          
C:   00000006  l_XINIT                         
C:   00000006  l_XISEG                         
C:   00000006  s_GSINIT0                       
C:   00000008  l_REG_BANK_0                    
C:   00000008  s_REG_BANK_1                    
C:   00000009  s_GSINIT1                       
C:   00000009  s_GSINIT2                       
C:   0000000A  l_GSINIT2                       
C:   0000000B  s_SSEG                          
C:   00000010  s_REG_BANK_2                    
C:   00000013  s_GSINIT3                       
C:   00000016  l_GSINIT                        
C:   00000018  s_BIT_BANK                      
C:   00000018  s_OSEG                          
C:   00000018  s_REG_BANK_3                    
C:   00000020  s_BSEG_BYTES                    
ASxxxx Linker V03.00 + NoICE + sdld,  page 2.
Hexadecimal  [32-Bits]

Area                                    Addr        Size        Decimal Bytes (Attributes)
--------------------------------        ----        ----        ------- ----- ------------
CABS                                00000000    00000000 =           0. bytes (ABS,CON,CODE)

      Value  Global                              Global Defined In Module
      -----  --------------------------------   ------------------------
C:   00000020  s__CODE                         
C:   00000022  l_GSINIT3                       
C:   0000002A  l_GSINIT4                       
C:   00000035  s_GSINIT4                       
C:   0000005F  s_GSINIT                        
C:   0000005F  s_GSINIT5                       
C:   00000075  s_GSFINAL                       
C:   00000078  s_CSEG                          
C:   00000080  l_DSEG                          
C:   000000F5  l_SSEG                          
C:   00000100  l_IRAM                          
C:   00000A03  l_CONST                         
C:   0000137E  l_CSEG                          
C:   000013BC  l_XSEG                          
C:   000013BC  s_XISEG                         
C:   000013F6  s_CONST                         
C:   00001DF9  s_XINIT                         

ASxxxx Linker V03.00 + NoICE + sdld,  page 3.
Hexadecimal  [32-Bits]

Area                                    Addr        Size        Decimal Bytes (Attributes)
--------------------------------        ----        ----        ------- ----- ------------
.  .ABS.                            00000000    00000000 =           0. bytes (ABS,CON)

      Value  Global                              Global Defined In Module
      -----  --------------------------------   ------------------------
     00000000  .__.ABS.                           _gptrget
     00000080  G$P0$0_0$0                         main
     00000080  G$P0_0$0_0$0                       main
     00000080  _P0                                main
     00000080  _P0_0                              main
     00000081  G$P0_1$0_0$0                       main
     00000081  G$SP$0_0$0                         main
     00000081  _P0_1                              main
     00000081  _SP                                main
     00000082  G$DP0L$0_0$0                       main
     00000082  G$DPL$0_0$0                        main
     00000082  G$P0_2$0_0$0                       main
     00000082  _DP0L                              main
     00000082  _DPL                               main
     00000082  _P0_2                              main
     00000083  G$DP0H$0_0$0                       main
     00000083  G$DPH$0_0$0                        main
     00000083  G$P0_3$0_0$0                       main
     00000083  _DP0H                              main
     00000083  _DPH                               main
     00000083  _P0_3                              main
     00000084  G$P0_4$0_0$0                       main
     00000084  _P0_4                              main
     00000085  G$P0_5$0_0$0                       main
     00000085  _P0_5                              main
     00000086  G$P0_6$0_0$0                       main
     00000086  _P0_6                              main
     00000087  G$P0_7$0_0$0                       main
     00000087  G$PCON$0_0$0                       main
     00000087  _P0_7                              main
     00000087  _PCON                              main
     00000088  G$IT0$0_0$0                        main
     00000088  G$TCON$0_0$0                       main
     00000088  _IT0                               main
     00000088  _TCON                              main
     00000089  G$IE0$0_0$0                        main
     00000089  G$TMOD$0_0$0                       main
     00000089  _IE0                               main
     00000089  _TMOD                              main
     0000008A  G$IT1$0_0$0                        main
     0000008A  G$TL0$0_0$0                        main
     0000008A  _IT1                               main
     0000008A  _TL0                               main
     0000008B  G$IE1$0_0$0                        main
     0000008B  G$TL1$0_0$0                        main
     0000008B  _IE1                               main
     0000008B  _TL1                               main
     0000008C  G$TH0$0_0$0                        main
     0000008C  G$TR0$0_0$0                        main
     0000008C  _TH0                               main
ASxxxx Linker V03.00 + NoICE + sdld,  page 4.
Hexadecimal  [32-Bits]

Area                                    Addr        Size        Decimal Bytes (Attributes)
--------------------------------        ----        ----        ------- ----- ------------
.  .ABS.                            00000000    00000000 =           0. bytes (ABS,CON)

      Value  Global                              Global Defined In Module
      -----  --------------------------------   ------------------------
     0000008C  _TR0                               main
     0000008D  G$TF0$0_0$0                        main
     0000008D  G$TH1$0_0$0                        main
     0000008D  _TF0                               main
     0000008D  _TH1                               main
     0000008E  G$AUXR$0_0$0                       main
     0000008E  G$TR1$0_0$0                        main
     0000008E  _AUXR                              main
     0000008E  _TR1                               main
     0000008F  G$CKCON0$0_0$0                     main
     0000008F  G$TF1$0_0$0                        main
     0000008F  _CKCON0                            main
     0000008F  _TF1                               main
     00000090  G$P1$0_0$0                         main
     00000090  G$P1_0$0_0$0                       main
     00000090  _P1                                main
     00000090  _P1_0                              main
     00000091  G$P1_1$0_0$0                       main
     00000091  _P1_1                              main
     00000092  G$P1_2$0_0$0                       main
     00000092  _P1_2                              main
     00000093  G$P1_3$0_0$0                       main
     00000093  _P1_3                              main
     00000094  G$P1_4$0_0$0                       main
     00000094  _P1_4                              main
     00000095  G$P1_5$0_0$0                       main
     00000095  _P1_5                              main
     00000096  G$P1_6$0_0$0                       main
     00000096  _P1_6                              main
     00000097  G$CKRL$0_0$0                       main
     00000097  G$P1_7$0_0$0                       main
     00000097  _CKRL                              main
     00000097  _P1_7                              main
     00000098  G$RI$0_0$0                         main
     00000098  G$SCON$0_0$0                       main
     00000098  _RI                                main
     00000098  _SCON                              main
     00000099  G$SBUF$0_0$0                       main
     00000099  G$SBUF0$0_0$0                      main
     00000099  G$TI$0_0$0                         main
     00000099  _SBUF                              main
     00000099  _SBUF0                             main
     00000099  _TI                                main
     0000009A  G$BRL$0_0$0                        main
     0000009A  G$RB8$0_0$0                        main
     0000009A  _BRL                               main
     0000009A  _RB8                               main
     0000009B  G$BDRCON$0_0$0                     main
     0000009B  G$TB8$0_0$0                        main
     0000009B  _BDRCON                            main
     0000009B  _TB8                               main
ASxxxx Linker V03.00 + NoICE + sdld,  page 5.
Hexadecimal  [32-Bits]

Area                                    Addr        Size        Decimal Bytes (Attributes)
--------------------------------        ----        ----        ------- ----- ------------
.  .ABS.                            00000000    00000000 =           0. bytes (ABS,CON)

      Value  Global                              Global Defined In Module
      -----  --------------------------------   ------------------------
     0000009C  G$KBLS$0_0$0                       main
     0000009C  G$REN$0_0$0                        main
     0000009C  _KBLS                              main
     0000009C  _REN                               main
     0000009D  G$KBE$0_0$0                        main
     0000009D  G$SM2$0_0$0                        main
     0000009D  _KBE                               main
     0000009D  _SM2                               main
     0000009E  G$KBF$0_0$0                        main
     0000009E  G$SM1$0_0$0                        main
     0000009E  _KBF                               main
     0000009E  _SM1                               main
     0000009F  G$SM0$0_0$0                        main
     0000009F  _SM0                               main
     000000A0  G$P2$0_0$0                         main
     000000A0  G$P2_0$0_0$0                       main
     000000A0  _P2                                main
     000000A0  _P2_0                              main
     000000A0  __XPAGE                            
     000000A1  G$P2_1$0_0$0                       main
     000000A1  _P2_1                              main
     000000A2  G$AUXR1$0_0$0                      main
     000000A2  G$P2_2$0_0$0                       main
     000000A2  _AUXR1                             main
     000000A2  _P2_2                              main
     000000A3  G$P2_3$0_0$0                       main
     000000A3  _P2_3                              main
     000000A4  G$P2_4$0_0$0                       main
     000000A4  _P2_4                              main
     000000A5  G$P2_5$0_0$0                       main
     000000A5  _P2_5                              main
     000000A6  G$P2_6$0_0$0                       main
     000000A6  G$WDTRST$0_0$0                     main
     000000A6  _P2_6                              main
     000000A6  _WDTRST                            main
     000000A7  G$P2_7$0_0$0                       main
     000000A7  G$WDTPRG$0_0$0                     main
     000000A7  _P2_7                              main
     000000A7  _WDTPRG                            main
     000000A8  G$EX0$0_0$0                        main
     000000A8  G$IE$0_0$0                         main
     000000A8  G$IEN0$0_0$0                       main
     000000A8  _EX0                               main
     000000A8  _IE                                main
     000000A8  _IEN0                              main
     000000A9  G$ET0$0_0$0                        main
     000000A9  G$SADDR$0_0$0                      main
     000000A9  _ET0                               main
     000000A9  _SADDR                             main
     000000AA  G$EX1$0_0$0                        main
     000000AA  _EX1                               main
ASxxxx Linker V03.00 + NoICE + sdld,  page 6.
Hexadecimal  [32-Bits]

Area                                    Addr        Size        Decimal Bytes (Attributes)
--------------------------------        ----        ----        ------- ----- ------------
.  .ABS.                            00000000    00000000 =           0. bytes (ABS,CON)

      Value  Global                              Global Defined In Module
      -----  --------------------------------   ------------------------
     000000AB  G$ET1$0_0$0                        main
     000000AB  _ET1                               main
     000000AC  G$ES$0_0$0                         main
     000000AC  _ES                                main
     000000AD  G$ET2$0_0$0                        main
     000000AD  _ET2                               main
     000000AE  G$EC$0_0$0                         main
     000000AE  _EC                                main
     000000AF  G$CKCON1$0_0$0                     main
     000000AF  G$EA$0_0$0                         main
     000000AF  _CKCON1                            main
     000000AF  _EA                                main
     000000B0  G$P3$0_0$0                         main
     000000B0  G$P3_0$0_0$0                       main
     000000B0  G$RXD$0_0$0                        main
     000000B0  G$RXD0$0_0$0                       main
     000000B0  _P3                                main
     000000B0  _P3_0                              main
     000000B0  _RXD                               main
     000000B0  _RXD0                              main
     000000B1  G$IEN1$0_0$0                       main
     000000B1  G$P3_1$0_0$0                       main
     000000B1  G$TXD$0_0$0                        main
     000000B1  G$TXD0$0_0$0                       main
     000000B1  _IEN1                              main
     000000B1  _P3_1                              main
     000000B1  _TXD                               main
     000000B1  _TXD0                              main
     000000B2  G$INT0$0_0$0                       main
     000000B2  G$IPL1$0_0$0                       main
     000000B2  G$P3_2$0_0$0                       main
     000000B2  _INT0                              main
     000000B2  _IPL1                              main
     000000B2  _P3_2                              main
     000000B3  G$INT1$0_0$0                       main
     000000B3  G$IPH1$0_0$0                       main
     000000B3  G$P3_3$0_0$0                       main
     000000B3  _INT1                              main
     000000B3  _IPH1                              main
     000000B3  _P3_3                              main
     000000B4  G$P3_4$0_0$0                       main
     000000B4  G$T0$0_0$0                         main
     000000B4  _P3_4                              main
     000000B4  _T0                                main
     000000B5  G$P3_5$0_0$0                       main
     000000B5  G$T1$0_0$0                         main
     000000B5  _P3_5                              main
     000000B5  _T1                                main
     000000B6  G$P3_6$0_0$0                       main
     000000B6  G$WR$0_0$0                         main
     000000B6  _P3_6                              main
ASxxxx Linker V03.00 + NoICE + sdld,  page 7.
Hexadecimal  [32-Bits]

Area                                    Addr        Size        Decimal Bytes (Attributes)
--------------------------------        ----        ----        ------- ----- ------------
.  .ABS.                            00000000    00000000 =           0. bytes (ABS,CON)

      Value  Global                              Global Defined In Module
      -----  --------------------------------   ------------------------
     000000B6  _WR                                main
     000000B7  G$IPH0$0_0$0                       main
     000000B7  G$P3_7$0_0$0                       main
     000000B7  G$RD$0_0$0                         main
     000000B7  _IPH0                              main
     000000B7  _P3_7                              main
     000000B7  _RD                                main
     000000B8  G$IP$0_0$0                         main
     000000B8  G$IPL0$0_0$0                       main
     000000B8  G$PX0$0_0$0                        main
     000000B8  G$PX0L$0_0$0                       main
     000000B8  _IP                                main
     000000B8  _IPL0                              main
     000000B8  _PX0                               main
     000000B8  _PX0L                              main
     000000B9  G$PT0$0_0$0                        main
     000000B9  G$PT0L$0_0$0                       main
     000000B9  G$SADEN$0_0$0                      main
     000000B9  _PT0                               main
     000000B9  _PT0L                              main
     000000B9  _SADEN                             main
     000000BA  G$PX1$0_0$0                        main
     000000BA  G$PX1L$0_0$0                       main
     000000BA  _PX1                               main
     000000BA  _PX1L                              main
     000000BB  G$PT1$0_0$0                        main
     000000BB  G$PT1L$0_0$0                       main
     000000BB  _PT1                               main
     000000BB  _PT1L                              main
     000000BC  G$PS$0_0$0                         main
     000000BC  G$PSL$0_0$0                        main
     000000BC  _PS                                main
     000000BC  _PSL                               main
     000000BD  G$PT2$0_0$0                        main
     000000BD  G$PT2L$0_0$0                       main
     000000BD  _PT2                               main
     000000BD  _PT2L                              main
     000000BE  G$PPCL$0_0$0                       main
     000000BE  _PPCL                              main
     000000C0  G$P4$0_0$0                         main
     000000C0  G$P4_0$0_0$0                       main
     000000C0  _P4                                main
     000000C0  _P4_0                              main
     000000C1  G$P4_1$0_0$0                       main
     000000C1  _P4_1                              main
     000000C2  G$P4_2$0_0$0                       main
     000000C2  _P4_2                              main
     000000C3  G$P4_3$0_0$0                       main
     000000C3  G$SPCON$0_0$0                      main
     000000C3  _P4_3                              main
     000000C3  _SPCON                             main
ASxxxx Linker V03.00 + NoICE + sdld,  page 8.
Hexadecimal  [32-Bits]

Area                                    Addr        Size        Decimal Bytes (Attributes)
--------------------------------        ----        ----        ------- ----- ------------
.  .ABS.                            00000000    00000000 =           0. bytes (ABS,CON)

      Value  Global                              Global Defined In Module
      -----  --------------------------------   ------------------------
     000000C4  G$P4_4$0_0$0                       main
     000000C4  G$SPSTA$0_0$0                      main
     000000C4  _P4_4                              main
     000000C4  _SPSTA                             main
     000000C5  G$P4_5$0_0$0                       main
     000000C5  G$SPDAT$0_0$0                      main
     000000C5  _P4_5                              main
     000000C5  _SPDAT                             main
     000000C6  G$P4_6$0_0$0                       main
     000000C6  _P4_6                              main
     000000C7  G$P4_7$0_0$0                       main
     000000C7  _P4_7                              main
     000000C8  G$CP_RL2$0_0$0                     main
     000000C8  G$T2CON$0_0$0                      main
     000000C8  G$T2CON_0$0_0$0                    main
     000000C8  _CP_RL2                            main
     000000C8  _T2CON                             main
     000000C8  _T2CON_0                           main
     000000C9  G$C_T2$0_0$0                       main
     000000C9  G$T2CON_1$0_0$0                    main
     000000C9  G$T2MOD$0_0$0                      main
     000000C9  _C_T2                              main
     000000C9  _T2CON_1                           main
     000000C9  _T2MOD                             main
     000000CA  G$RCAP2L$0_0$0                     main
     000000CA  G$T2CON_2$0_0$0                    main
     000000CA  G$TR2$0_0$0                        main
     000000CA  _RCAP2L                            main
     000000CA  _T2CON_2                           main
     000000CA  _TR2                               main
     000000CB  G$EXEN2$0_0$0                      main
     000000CB  G$RCAP2H$0_0$0                     main
     000000CB  G$T2CON_3$0_0$0                    main
     000000CB  _EXEN2                             main
     000000CB  _RCAP2H                            main
     000000CB  _T2CON_3                           main
     000000CC  G$T2CON_4$0_0$0                    main
     000000CC  G$TCLK$0_0$0                       main
     000000CC  G$TL2$0_0$0                        main
     000000CC  _T2CON_4                           main
     000000CC  _TCLK                              main
     000000CC  _TL2                               main
     000000CD  G$RCLK$0_0$0                       main
     000000CD  G$T2CON_5$0_0$0                    main
     000000CD  G$TH2$0_0$0                        main
     000000CD  _RCLK                              main
     000000CD  _T2CON_5                           main
     000000CD  _TH2                               main
     000000CE  G$EXF2$0_0$0                       main
     000000CE  G$T2CON_6$0_0$0                    main
     000000CE  _EXF2                              main
ASxxxx Linker V03.00 + NoICE + sdld,  page 9.
Hexadecimal  [32-Bits]

Area                                    Addr        Size        Decimal Bytes (Attributes)
--------------------------------        ----        ----        ------- ----- ------------
.  .ABS.                            00000000    00000000 =           0. bytes (ABS,CON)

      Value  Global                              Global Defined In Module
      -----  --------------------------------   ------------------------
     000000CE  _T2CON_6                           main
     000000CF  G$T2CON_7$0_0$0                    main
     000000CF  G$TF2$0_0$0                        main
     000000CF  _T2CON_7                           main
     000000CF  _TF2                               main
     000000D0  G$P$0_0$0                          main
     000000D0  G$PSW$0_0$0                        main
     000000D0  _P                                 main
     000000D0  _PSW                               main
     000000D1  G$F1$0_0$0                         main
     000000D1  _F1                                main
     000000D2  G$EECON$0_0$0                      main
     000000D2  G$OV$0_0$0                         main
     000000D2  _EECON                             main
     000000D2  _OV                                main
     000000D3  G$RS0$0_0$0                        main
     000000D3  _RS0                               main
     000000D4  G$RS1$0_0$0                        main
     000000D4  _RS1                               main
     000000D5  G$F0$0_0$0                         main
     000000D5  _F0                                main
     000000D6  G$AC$0_0$0                         main
     000000D6  _AC                                main
     000000D7  G$CY$0_0$0                         main
     000000D7  _CY                                main
     000000D8  G$CCF0$0_0$0                       main
     000000D8  G$CCON$0_0$0                       main
     000000D8  _CCF0                              main
     000000D8  _CCON                              main
     000000D9  G$CCF1$0_0$0                       main
     000000D9  G$CMOD$0_0$0                       main
     000000D9  _CCF1                              main
     000000D9  _CMOD                              main
     000000DA  G$CCAPM0$0_0$0                     main
     000000DA  G$CCF2$0_0$0                       main
     000000DA  _CCAPM0                            main
     000000DA  _CCF2                              main
     000000DB  G$CCAPM1$0_0$0                     main
     000000DB  G$CCF3$0_0$0                       main
     000000DB  _CCAPM1                            main
     000000DB  _CCF3                              main
     000000DC  G$CCAPM2$0_0$0                     main
     000000DC  G$CCF4$0_0$0                       main
     000000DC  _CCAPM2                            main
     000000DC  _CCF4                              main
     000000DD  G$CCAPM3$0_0$0                     main
     000000DD  _CCAPM3                            main
     000000DE  G$CCAPM4$0_0$0                     main
     000000DE  G$CR$0_0$0                         main
     000000DE  _CCAPM4                            main
     000000DE  _CR                                main
ASxxxx Linker V03.00 + NoICE + sdld,  page 10.
Hexadecimal  [32-Bits]

Area                                    Addr        Size        Decimal Bytes (Attributes)
--------------------------------        ----        ----        ------- ----- ------------
.  .ABS.                            00000000    00000000 =           0. bytes (ABS,CON)

      Value  Global                              Global Defined In Module
      -----  --------------------------------   ------------------------
     000000DF  G$CF$0_0$0                         main
     000000DF  _CF                                main
     000000E0  G$ACC$0_0$0                        main
     000000E0  _ACC                               main
     000000E8  G$P5$0_0$0                         main
     000000E8  G$P5_0$0_0$0                       main
     000000E8  _P5                                main
     000000E8  _P5_0                              main
     000000E9  G$CL$0_0$0                         main
     000000E9  G$P5_1$0_0$0                       main
     000000E9  _CL                                main
     000000E9  _P5_1                              main
     000000EA  G$CCAP0L$0_0$0                     main
     000000EA  G$P5_2$0_0$0                       main
     000000EA  _CCAP0L                            main
     000000EA  _P5_2                              main
     000000EB  G$CCAP1L$0_0$0                     main
     000000EB  G$P5_3$0_0$0                       main
     000000EB  _CCAP1L                            main
     000000EB  _P5_3                              main
     000000EC  G$CCAP2L$0_0$0                     main
     000000EC  G$P5_4$0_0$0                       main
     000000EC  _CCAP2L                            main
     000000EC  _P5_4                              main
     000000ED  G$CCAP3L$0_0$0                     main
     000000ED  G$P5_5$0_0$0                       main
     000000ED  _CCAP3L                            main
     000000ED  _P5_5                              main
     000000EE  G$CCAP4L$0_0$0                     main
     000000EE  G$P5_6$0_0$0                       main
     000000EE  _CCAP4L                            main
     000000EE  _P5_6                              main
     000000EF  G$P5_7$0_0$0                       main
     000000EF  _P5_7                              main
     000000F0  G$B$0_0$0                          main
     000000F0  G$BREG_F0$0_0$0                    main
     000000F0  _B                                 main
     000000F0  _BREG_F0                           main
     000000F1  G$BREG_F1$0_0$0                    main
     000000F1  _BREG_F1                           main
     000000F2  G$BREG_F2$0_0$0                    main
     000000F2  _BREG_F2                           main
     000000F3  G$BREG_F3$0_0$0                    main
     000000F3  _BREG_F3                           main
     000000F4  G$BREG_F4$0_0$0                    main
     000000F4  _BREG_F4                           main
     000000F5  G$BREG_F5$0_0$0                    main
     000000F5  _BREG_F5                           main
     000000F5  _B_5                               _gptrget
     000000F6  G$BREG_F6$0_0$0                    main
     000000F6  _BREG_F6                           main
ASxxxx Linker V03.00 + NoICE + sdld,  page 11.
Hexadecimal  [32-Bits]

Area                                    Addr        Size        Decimal Bytes (Attributes)
--------------------------------        ----        ----        ------- ----- ------------
.  .ABS.                            00000000    00000000 =           0. bytes (ABS,CON)

      Value  Global                              Global Defined In Module
      -----  --------------------------------   ------------------------
     000000F6  _B_6                               _gptrget
     000000F7  G$BREG_F7$0_0$0                    main
     000000F7  _BREG_F7                           main
     000000F7  _B_7                               _gptrget
     000000F9  G$CH$0_0$0                         main
     000000F9  _CH                                main
     000000FA  G$CCAP0H$0_0$0                     main
     000000FA  _CCAP0H                            main
     000000FB  G$CCAP1H$0_0$0                     main
     000000FB  _CCAP1H                            main
     000000FC  G$CCAP2H$0_0$0                     main
     000000FC  _CCAP2H                            main
     000000FD  G$CCAP3H$0_0$0                     main
     000000FD  _CCAP3H                            main
     000000FE  G$CCAP4H$0_0$0                     main
     000000FE  _CCAP4H                            main
ASxxxx Linker V03.00 + NoICE + sdld,  page 12.
Hexadecimal  [32-Bits]

Area                                    Addr        Size        Decimal Bytes (Attributes)
--------------------------------        ----        ----        ------- ----- ------------
REG_BANK_0                          00000000    00000008 =           8. bytes (REL,OVR)

      Value  Global                              Global Defined In Module
      -----  --------------------------------   ------------------------
ASxxxx Linker V03.00 + NoICE + sdld,  page 13.
Hexadecimal  [32-Bits]

Area                                    Addr        Size        Decimal Bytes (Attributes)
--------------------------------        ----        ----        ------- ----- ------------
DSEG                                00000000    00000080 =         128. bytes (REL,CON)

      Value  Global                              Global Defined In Module
      -----  --------------------------------   ------------------------
     0000000A  _bp                                _bp

ASxxxx Linker V03.00 + NoICE + sdld,  page 14.
Hexadecimal  [32-Bits]

Area                                    Addr        Size        Decimal Bytes (Attributes)
--------------------------------        ----        ----        ------- ----- ------------
SSEG                                0000000B    000000F5 =         245. bytes (REL,OVR)

      Value  Global                              Global Defined In Module
      -----  --------------------------------   ------------------------
     0000000B  __start__stack                     main

ASxxxx Linker V03.00 + NoICE + sdld,  page 15.
Hexadecimal  [32-Bits]

Area                                    Addr        Size        Decimal Bytes (Attributes)
--------------------------------        ----        ----        ------- ----- ------------
XSEG                                00000000    000013BC =        5052. bytes (REL,CON,XDATA)

      Value  Global                              Global Defined In Module
      -----  --------------------------------   ------------------------
D:   00000000  Lbuffer_inputs.putchar$c$1_0$41    buffer_inputs
D:   00000002  Lcharacters.dataout$value$1_0$42   characters
D:   00000004  Lcharacters.enter_characters$inp   characters
D:   00000006  Lcharacters.enter_characters$buf   characters
D:   0000006A  Lcharacters.enter_characters$buf   characters
D:   0000006C  Lcharacters.enter_characters$buf   characters
D:   0000006E  Lcharacters.enter_characters$hea   characters
D:   00000070  Lcharacters.enter_characters$arr   characters
D:   00000072  Lcharacters.enter_characters$i$1   characters
D:   00000074  Lcharacters.enter_characters$buf   characters
D:   00000076  Lcharacters.enter_characters$tot   characters
D:   00000078  G$__sdcc_heap$0_0$0                heap
D:   00000078  ___sdcc_heap                       heap
D:   00001338  G$buffer_0$0_0$0                   main
D:   00001338  _buffer_0                          main
D:   0000133A  G$buffer_1$0_0$0                   main
D:   0000133A  _buffer_1                          main
D:   0000133C  G$buffer_n$0_0$0                   main
D:   0000133C  _buffer_n                          main
D:   000013A0  G$buffer_0_address$0_0$0           main
D:   000013A0  _buffer_0_address                  main
D:   000013A2  G$buffer_1_address$0_0$0           main
D:   000013A2  _buffer_1_address                  main
D:   000013A4  G$inp_ch$0_0$0                     main
D:   000013A4  _inp_ch                            main
D:   000013A6  Lmain.main$p$3_2$52                main
D:   000013B2  ___sdcc_heap_free                  malloc
D:   000013BA  __mulint_PARM_2                    _mulint

ASxxxx Linker V03.00 + NoICE + sdld,  page 16.
Hexadecimal  [32-Bits]

Area                                    Addr        Size        Decimal Bytes (Attributes)
--------------------------------        ----        ----        ------- ----- ------------
XISEG                               000013BC    00000006 =           6. bytes (REL,CON,XDATA)

      Value  Global                              Global Defined In Module
      -----  --------------------------------   ------------------------
D:   000013BC  G$heap1$0_0$0                      main
D:   000013BC  _heap1                             main
D:   000013BE  G$total_ch$0_0$0                   main
D:   000013BE  _total_ch                          main
D:   000013C0  G$storage$0_0$0                    main
D:   000013C0  _storage                           main
ASxxxx Linker V03.00 + NoICE + sdld,  page 17.
Hexadecimal  [32-Bits]

Area                                    Addr        Size        Decimal Bytes (Attributes)
--------------------------------        ----        ----        ------- ----- ------------
HOME                                00000000    00000006 =           6. bytes (REL,CON,CODE)

      Value  Global                              Global Defined In Module
      -----  --------------------------------   ------------------------
C:   00000000  A$main$759                         main
C:   00000003  A$main$781                         main
C:   00000003  __sdcc_program_startup             main
ASxxxx Linker V03.00 + NoICE + sdld,  page 18.
Hexadecimal  [32-Bits]

Area                                    Addr        Size        Decimal Bytes (Attributes)
--------------------------------        ----        ----        ------- ----- ------------
GSINIT0                             00000006    00000003 =           3. bytes (REL,CON,CODE)

      Value  Global                              Global Defined In Module
      -----  --------------------------------   ------------------------
C:   00000006  __sdcc_gsinit_startup              

ASxxxx Linker V03.00 + NoICE + sdld,  page 19.
Hexadecimal  [32-Bits]

Area                                    Addr        Size        Decimal Bytes (Attributes)
--------------------------------        ----        ----        ------- ----- ------------
GSINIT2                             00000009    0000000A =          10. bytes (REL,CON,CODE)

      Value  Global                              Global Defined In Module
      -----  --------------------------------   ------------------------
ASxxxx Linker V03.00 + NoICE + sdld,  page 20.
Hexadecimal  [32-Bits]

Area                                    Addr        Size        Decimal Bytes (Attributes)
--------------------------------        ----        ----        ------- ----- ------------
GSINIT3                             00000013    00000022 =          34. bytes (REL,CON,CODE)

      Value  Global                              Global Defined In Module
      -----  --------------------------------   ------------------------
C:   00000013  __mcs51_genXINIT                   

ASxxxx Linker V03.00 + NoICE + sdld,  page 21.
Hexadecimal  [32-Bits]

Area                                    Addr        Size        Decimal Bytes (Attributes)
--------------------------------        ----        ----        ------- ----- ------------
GSINIT4                             00000035    0000002A =          42. bytes (REL,CON,CODE)

      Value  Global                              Global Defined In Module
      -----  --------------------------------   ------------------------
C:   00000035  __mcs51_genRAMCLEAR                
C:   0000003B  __mcs51_genXRAMCLEAR               

ASxxxx Linker V03.00 + NoICE + sdld,  page 22.
Hexadecimal  [32-Bits]

Area                                    Addr        Size        Decimal Bytes (Attributes)
--------------------------------        ----        ----        ------- ----- ------------
GSINIT                              0000005F    00000016 =          22. bytes (REL,CON,CODE)

      Value  Global                              Global Defined In Module
      -----  --------------------------------   ------------------------
C:   0000005F  A$characters$760                   characters
C:   0000005F  C$characters.c$43$1_0$45           characters
C:   00000062  A$characters$761                   characters
C:   00000063  A$characters$762                   characters
C:   00000064  A$characters$763                   characters
C:   00000065  A$characters$764                   characters
C:   00000066  A$characters$767                   characters
C:   00000066  C$characters.c$44$1_0$45           characters
C:   00000069  A$characters$768                   characters
C:   0000006A  A$characters$769                   characters
C:   0000006B  A$characters$770                   characters
C:   0000006C  A$characters$773                   characters
C:   0000006C  C$characters.c$45$1_0$45           characters
C:   0000006F  A$characters$774                   characters
C:   00000071  A$characters$775                   characters
C:   00000072  A$characters$776                   characters
C:   00000073  A$characters$777                   characters
C:   00000074  A$characters$778                   characters
ASxxxx Linker V03.00 + NoICE + sdld,  page 23.
Hexadecimal  [32-Bits]

Area                                    Addr        Size        Decimal Bytes (Attributes)
--------------------------------        ----        ----        ------- ----- ------------
GSFINAL                             00000075    00000003 =           3. bytes (REL,CON,CODE)

      Value  Global                              Global Defined In Module
      -----  --------------------------------   ------------------------
C:   00000075  A$main$774                         main

ASxxxx Linker V03.00 + NoICE + sdld,  page 24.
Hexadecimal  [32-Bits]

Area                                    Addr        Size        Decimal Bytes (Attributes)
--------------------------------        ----        ----        ------- ----- ------------
CSEG                                00000078    0000137E =        4990. bytes (REL,CON,CODE)

      Value  Global                              Global Defined In Module
      -----  --------------------------------   ------------------------
C:   00000078  A$buffer_inputs$744                buffer_inputs
C:   00000078  C$buffer_inputs.c$13$0_0$42        buffer_inputs
C:   00000078  G$putchar$0$0                      buffer_inputs
C:   00000078  _putchar                           buffer_inputs
C:   0000007A  A$buffer_inputs$745                buffer_inputs
C:   0000007C  A$buffer_inputs$746                buffer_inputs
C:   0000007F  A$buffer_inputs$747                buffer_inputs
C:   00000080  A$buffer_inputs$748                buffer_inputs
C:   00000081  A$buffer_inputs$749                buffer_inputs
C:   00000082  A$buffer_inputs$750                buffer_inputs
C:   00000083  A$buffer_inputs$754                buffer_inputs
C:   00000083  C$buffer_inputs.c$16$1_0$42        buffer_inputs
C:   00000086  A$buffer_inputs$757                buffer_inputs
C:   00000086  C$buffer_inputs.c$17$1_0$42        buffer_inputs
C:   00000089  A$buffer_inputs$758                buffer_inputs
C:   0000008A  A$buffer_inputs$759                buffer_inputs
C:   0000008B  A$buffer_inputs$760                buffer_inputs
C:   0000008C  A$buffer_inputs$761                buffer_inputs
C:   0000008D  A$buffer_inputs$762                buffer_inputs
C:   0000008E  A$buffer_inputs$763                buffer_inputs
C:   00000090  A$buffer_inputs$767                buffer_inputs
C:   00000090  C$buffer_inputs.c$18$1_0$42        buffer_inputs
C:   00000092  A$buffer_inputs$770                buffer_inputs
C:   00000092  C$buffer_inputs.c$19$1_0$42        buffer_inputs
C:   00000094  A$buffer_inputs$771                buffer_inputs
C:   00000096  A$buffer_inputs$776                buffer_inputs
C:   00000096  C$buffer_inputs.c$20$1_0$42        buffer_inputs
C:   00000096  XG$putchar$0$0                     buffer_inputs
C:   00000097  A$buffer_inputs$793                buffer_inputs
C:   00000097  C$buffer_inputs.c$28$1_0$44        buffer_inputs
C:   00000097  C$buffer_inputs.c$31$1_0$44        buffer_inputs
C:   00000097  C$buffer_inputs.c$32$1_0$44        buffer_inputs
C:   00000097  G$getchar$0$0                      buffer_inputs
C:   00000097  _getchar                           buffer_inputs
C:   0000009A  A$buffer_inputs$794                buffer_inputs
C:   0000009C  A$buffer_inputs$798                buffer_inputs
C:   0000009C  C$buffer_inputs.c$33$1_0$44        buffer_inputs
C:   0000009E  A$buffer_inputs$799                buffer_inputs
C:   000000A0  A$buffer_inputs$800                buffer_inputs
C:   000000A2  A$buffer_inputs$801                buffer_inputs
C:   000000A4  A$buffer_inputs$806                buffer_inputs
C:   000000A4  C$buffer_inputs.c$34$1_0$44        buffer_inputs
C:   000000A4  XG$getchar$0$0                     buffer_inputs
C:   000000A5  A$buffer_inputs$829                buffer_inputs
C:   000000A5  C$buffer_inputs.c$42$1_0$45        buffer_inputs
C:   000000A5  C$buffer_inputs.c$50$1_0$45        buffer_inputs
C:   000000A5  G$getinp_48_4800$0$0               buffer_inputs
C:   000000A5  _getinp_48_4800                    buffer_inputs
C:   000000A7  A$buffer_inputs$830                buffer_inputs
C:   000000A9  A$buffer_inputs$831                buffer_inputs
ASxxxx Linker V03.00 + NoICE + sdld,  page 25.
Hexadecimal  [32-Bits]

Area                                    Addr        Size        Decimal Bytes (Attributes)
--------------------------------        ----        ----        ------- ----- ------------
CSEG                                00000078    0000137E =        4990. bytes (REL,CON,CODE)

      Value  Global                              Global Defined In Module
      -----  --------------------------------   ------------------------
C:   000000AB  A$buffer_inputs$832                buffer_inputs
C:   000000AD  A$buffer_inputs$833                buffer_inputs
C:   000000B0  A$buffer_inputs$834                buffer_inputs
C:   000000B2  A$buffer_inputs$835                buffer_inputs
C:   000000B4  A$buffer_inputs$839                buffer_inputs
C:   000000B4  C$buffer_inputs.c$52$1_0$45        buffer_inputs
C:   000000B6  A$buffer_inputs$840                buffer_inputs
C:   000000B8  A$buffer_inputs$841                buffer_inputs
C:   000000BA  A$buffer_inputs$842                buffer_inputs
C:   000000BC  A$buffer_inputs$843                buffer_inputs
C:   000000BF  A$buffer_inputs$844                buffer_inputs
C:   000000C1  A$buffer_inputs$845                buffer_inputs
C:   000000C3  A$buffer_inputs$848                buffer_inputs
C:   000000C3  C$buffer_inputs.c$55$1_0$45        buffer_inputs
C:   000000C6  A$buffer_inputs$849                buffer_inputs
C:   000000C8  A$buffer_inputs$850                buffer_inputs
C:   000000CB  A$buffer_inputs$853                buffer_inputs
C:   000000CB  C$buffer_inputs.c$56$1_1$46        buffer_inputs
C:   000000CD  A$buffer_inputs$854                buffer_inputs
C:   000000CE  A$buffer_inputs$855                buffer_inputs
C:   000000D0  A$buffer_inputs$856                buffer_inputs
C:   000000D2  A$buffer_inputs$857                buffer_inputs
C:   000000D3  A$buffer_inputs$860                buffer_inputs
C:   000000D3  C$buffer_inputs.c$57$1_1$46        buffer_inputs
C:   000000D5  A$buffer_inputs$861                buffer_inputs
C:   000000D7  A$buffer_inputs$862                buffer_inputs
C:   000000D9  A$buffer_inputs$863                buffer_inputs
C:   000000DB  A$buffer_inputs$864                buffer_inputs
C:   000000DD  A$buffer_inputs$865                buffer_inputs
C:   000000DF  A$buffer_inputs$866                buffer_inputs
C:   000000E1  A$buffer_inputs$867                buffer_inputs
C:   000000E3  A$buffer_inputs$868                buffer_inputs
C:   000000E6  A$buffer_inputs$869                buffer_inputs
C:   000000E8  A$buffer_inputs$870                buffer_inputs
C:   000000EA  A$buffer_inputs$871                buffer_inputs
C:   000000EC  A$buffer_inputs$874                buffer_inputs
C:   000000EC  C$buffer_inputs.c$60$1_1$46        buffer_inputs
C:   000000EF  A$buffer_inputs$875                buffer_inputs
C:   000000F1  A$buffer_inputs$876                buffer_inputs
C:   000000F4  A$buffer_inputs$879                buffer_inputs
C:   000000F4  C$buffer_inputs.c$61$1_2$47        buffer_inputs
C:   000000F6  A$buffer_inputs$880                buffer_inputs
C:   000000F7  A$buffer_inputs$881                buffer_inputs
C:   000000F9  A$buffer_inputs$882                buffer_inputs
C:   000000FB  A$buffer_inputs$883                buffer_inputs
C:   000000FC  A$buffer_inputs$886                buffer_inputs
C:   000000FC  C$buffer_inputs.c$62$1_2$47        buffer_inputs
C:   000000FE  A$buffer_inputs$887                buffer_inputs
C:   00000100  A$buffer_inputs$888                buffer_inputs
C:   00000102  A$buffer_inputs$889                buffer_inputs
C:   00000104  A$buffer_inputs$890                buffer_inputs
ASxxxx Linker V03.00 + NoICE + sdld,  page 26.
Hexadecimal  [32-Bits]

Area                                    Addr        Size        Decimal Bytes (Attributes)
--------------------------------        ----        ----        ------- ----- ------------
CSEG                                00000078    0000137E =        4990. bytes (REL,CON,CODE)

      Value  Global                              Global Defined In Module
      -----  --------------------------------   ------------------------
C:   00000106  A$buffer_inputs$891                buffer_inputs
C:   00000108  A$buffer_inputs$892                buffer_inputs
C:   0000010A  A$buffer_inputs$893                buffer_inputs
C:   0000010C  A$buffer_inputs$894                buffer_inputs
C:   0000010F  A$buffer_inputs$895                buffer_inputs
C:   00000111  A$buffer_inputs$896                buffer_inputs
C:   00000113  A$buffer_inputs$897                buffer_inputs
C:   00000115  A$buffer_inputs$900                buffer_inputs
C:   00000115  C$buffer_inputs.c$65$1_2$47        buffer_inputs
C:   00000118  A$buffer_inputs$901                buffer_inputs
C:   0000011A  A$buffer_inputs$902                buffer_inputs
C:   0000011D  A$buffer_inputs$905                buffer_inputs
C:   0000011D  C$buffer_inputs.c$66$1_3$48        buffer_inputs
C:   0000011F  A$buffer_inputs$906                buffer_inputs
C:   00000120  A$buffer_inputs$907                buffer_inputs
C:   00000122  A$buffer_inputs$908                buffer_inputs
C:   00000124  A$buffer_inputs$909                buffer_inputs
C:   00000125  A$buffer_inputs$912                buffer_inputs
C:   00000125  C$buffer_inputs.c$67$1_3$48        buffer_inputs
C:   00000127  A$buffer_inputs$913                buffer_inputs
C:   00000129  A$buffer_inputs$914                buffer_inputs
C:   0000012B  A$buffer_inputs$915                buffer_inputs
C:   0000012D  A$buffer_inputs$916                buffer_inputs
C:   0000012F  A$buffer_inputs$917                buffer_inputs
C:   00000131  A$buffer_inputs$918                buffer_inputs
C:   00000133  A$buffer_inputs$919                buffer_inputs
C:   00000135  A$buffer_inputs$920                buffer_inputs
C:   00000138  A$buffer_inputs$921                buffer_inputs
C:   0000013A  A$buffer_inputs$922                buffer_inputs
C:   0000013C  A$buffer_inputs$923                buffer_inputs
C:   0000013E  A$buffer_inputs$926                buffer_inputs
C:   0000013E  C$buffer_inputs.c$70$1_3$48        buffer_inputs
C:   00000141  A$buffer_inputs$927                buffer_inputs
C:   00000143  A$buffer_inputs$928                buffer_inputs
C:   00000146  A$buffer_inputs$931                buffer_inputs
C:   00000146  C$buffer_inputs.c$71$1_4$49        buffer_inputs
C:   00000148  A$buffer_inputs$932                buffer_inputs
C:   00000149  A$buffer_inputs$933                buffer_inputs
C:   0000014B  A$buffer_inputs$934                buffer_inputs
C:   0000014D  A$buffer_inputs$935                buffer_inputs
C:   0000014E  A$buffer_inputs$938                buffer_inputs
C:   0000014E  C$buffer_inputs.c$72$1_4$49        buffer_inputs
C:   00000150  A$buffer_inputs$939                buffer_inputs
C:   00000152  A$buffer_inputs$940                buffer_inputs
C:   00000154  A$buffer_inputs$941                buffer_inputs
C:   00000156  A$buffer_inputs$942                buffer_inputs
C:   00000158  A$buffer_inputs$943                buffer_inputs
C:   0000015A  A$buffer_inputs$944                buffer_inputs
C:   0000015C  A$buffer_inputs$945                buffer_inputs
C:   0000015E  A$buffer_inputs$946                buffer_inputs
C:   00000161  A$buffer_inputs$947                buffer_inputs
ASxxxx Linker V03.00 + NoICE + sdld,  page 27.
Hexadecimal  [32-Bits]

Area                                    Addr        Size        Decimal Bytes (Attributes)
--------------------------------        ----        ----        ------- ----- ------------
CSEG                                00000078    0000137E =        4990. bytes (REL,CON,CODE)

      Value  Global                              Global Defined In Module
      -----  --------------------------------   ------------------------
C:   00000163  A$buffer_inputs$948                buffer_inputs
C:   00000165  A$buffer_inputs$949                buffer_inputs
C:   00000167  A$buffer_inputs$950                buffer_inputs
C:   00000169  A$buffer_inputs$951                buffer_inputs
C:   0000016B  A$buffer_inputs$952                buffer_inputs
C:   0000016D  A$buffer_inputs$953                buffer_inputs
C:   0000016F  A$buffer_inputs$954                buffer_inputs
C:   00000171  A$buffer_inputs$955                buffer_inputs
C:   00000173  A$buffer_inputs$956                buffer_inputs
C:   00000175  A$buffer_inputs$957                buffer_inputs
C:   00000177  A$buffer_inputs$960                buffer_inputs
C:   00000177  C$buffer_inputs.c$75$1_4$49        buffer_inputs
C:   0000017A  A$buffer_inputs$961                buffer_inputs
C:   0000017B  A$buffer_inputs$962                buffer_inputs
C:   0000017C  A$buffer_inputs$963                buffer_inputs
C:   0000017D  A$buffer_inputs$964                buffer_inputs
C:   0000017E  A$buffer_inputs$965                buffer_inputs
C:   0000017F  A$buffer_inputs$966                buffer_inputs
C:   00000182  A$buffer_inputs$967                buffer_inputs
C:   00000184  A$buffer_inputs$968                buffer_inputs
C:   00000186  A$buffer_inputs$969                buffer_inputs
C:   00000188  A$buffer_inputs$970                buffer_inputs
C:   0000018A  A$buffer_inputs$971                buffer_inputs
C:   0000018C  A$buffer_inputs$972                buffer_inputs
C:   0000018E  A$buffer_inputs$973                buffer_inputs
C:   00000191  A$buffer_inputs$974                buffer_inputs
C:   00000193  A$buffer_inputs$975                buffer_inputs
C:   00000195  A$buffer_inputs$976                buffer_inputs
C:   00000197  A$buffer_inputs$977                buffer_inputs
C:   00000199  A$buffer_inputs$978                buffer_inputs
C:   0000019B  A$buffer_inputs$979                buffer_inputs
C:   0000019D  A$buffer_inputs$980                buffer_inputs
C:   0000019F  A$buffer_inputs$981                buffer_inputs
C:   000001A1  A$buffer_inputs$982                buffer_inputs
C:   000001A4  A$buffer_inputs$983                buffer_inputs
C:   000001A5  A$buffer_inputs$984                buffer_inputs
C:   000001A6  A$buffer_inputs$985                buffer_inputs
C:   000001A7  A$buffer_inputs$986                buffer_inputs
C:   000001A8  A$buffer_inputs$987                buffer_inputs
C:   000001A9  A$buffer_inputs$988                buffer_inputs
C:   000001AC  A$buffer_inputs$989                buffer_inputs
C:   000001AE  A$buffer_inputs$990                buffer_inputs
C:   000001B0  A$buffer_inputs$991                buffer_inputs
C:   000001B2  A$buffer_inputs$992                buffer_inputs
C:   000001B4  A$buffer_inputs$993                buffer_inputs
C:   000001B6  A$buffer_inputs$994                buffer_inputs
C:   000001B8  A$buffer_inputs$995                buffer_inputs
C:   000001BB  A$buffer_inputs$996                buffer_inputs
C:   000001BD  A$buffer_inputs$997                buffer_inputs
C:   000001BF  A$buffer_inputs$998                buffer_inputs
C:   000001C1  A$buffer_inputs$999                buffer_inputs
ASxxxx Linker V03.00 + NoICE + sdld,  page 28.
Hexadecimal  [32-Bits]

Area                                    Addr        Size        Decimal Bytes (Attributes)
--------------------------------        ----        ----        ------- ----- ------------
CSEG                                00000078    0000137E =        4990. bytes (REL,CON,CODE)

      Value  Global                              Global Defined In Module
      -----  --------------------------------   ------------------------
C:   000001C3  A$buffer_inputs$1000               buffer_inputs
C:   000001C5  A$buffer_inputs$1001               buffer_inputs
C:   000001C7  A$buffer_inputs$1002               buffer_inputs
C:   000001C9  A$buffer_inputs$1003               buffer_inputs
C:   000001CB  A$buffer_inputs$1004               buffer_inputs
C:   000001CC  A$buffer_inputs$1005               buffer_inputs
C:   000001CD  A$buffer_inputs$1006               buffer_inputs
C:   000001CE  A$buffer_inputs$1007               buffer_inputs
C:   000001CF  A$buffer_inputs$1008               buffer_inputs
C:   000001D0  A$buffer_inputs$1009               buffer_inputs
C:   000001D1  A$buffer_inputs$1010               buffer_inputs
C:   000001D4  A$buffer_inputs$1011               buffer_inputs
C:   000001D5  A$buffer_inputs$1012               buffer_inputs
C:   000001D6  A$buffer_inputs$1013               buffer_inputs
C:   000001D7  A$buffer_inputs$1014               buffer_inputs
C:   000001D8  A$buffer_inputs$1015               buffer_inputs
C:   000001D9  A$buffer_inputs$1016               buffer_inputs
C:   000001DC  A$buffer_inputs$1017               buffer_inputs
C:   000001DE  A$buffer_inputs$1018               buffer_inputs
C:   000001E0  A$buffer_inputs$1019               buffer_inputs
C:   000001E2  A$buffer_inputs$1020               buffer_inputs
C:   000001E4  A$buffer_inputs$1021               buffer_inputs
C:   000001E7  A$buffer_inputs$1022               buffer_inputs
C:   000001E9  A$buffer_inputs$1023               buffer_inputs
C:   000001EB  A$buffer_inputs$1024               buffer_inputs
C:   000001ED  A$buffer_inputs$1025               buffer_inputs
C:   000001EF  A$buffer_inputs$1026               buffer_inputs
C:   000001F1  A$buffer_inputs$1027               buffer_inputs
C:   000001F3  A$buffer_inputs$1028               buffer_inputs
C:   000001F4  A$buffer_inputs$1029               buffer_inputs
C:   000001F5  A$buffer_inputs$1030               buffer_inputs
C:   000001F6  A$buffer_inputs$1031               buffer_inputs
C:   000001F7  A$buffer_inputs$1032               buffer_inputs
C:   000001F8  A$buffer_inputs$1033               buffer_inputs
C:   000001F9  A$buffer_inputs$1034               buffer_inputs
C:   000001FA  A$buffer_inputs$1035               buffer_inputs
C:   000001FB  A$buffer_inputs$1036               buffer_inputs
C:   000001FC  A$buffer_inputs$1037               buffer_inputs
C:   000001FD  A$buffer_inputs$1038               buffer_inputs
C:   000001FE  A$buffer_inputs$1039               buffer_inputs
C:   000001FF  A$buffer_inputs$1042               buffer_inputs
C:   000001FF  C$buffer_inputs.c$76$1_4$49        buffer_inputs
C:   00000201  A$buffer_inputs$1043               buffer_inputs
C:   00000203  A$buffer_inputs$1044               buffer_inputs
C:   00000205  A$buffer_inputs$1045               buffer_inputs
C:   00000207  A$buffer_inputs$1046               buffer_inputs
C:   00000209  A$buffer_inputs$1047               buffer_inputs
C:   0000020B  A$buffer_inputs$1048               buffer_inputs
C:   0000020D  A$buffer_inputs$1049               buffer_inputs
C:   0000020F  A$buffer_inputs$1050               buffer_inputs
C:   00000212  A$buffer_inputs$1051               buffer_inputs
ASxxxx Linker V03.00 + NoICE + sdld,  page 29.
Hexadecimal  [32-Bits]

Area                                    Addr        Size        Decimal Bytes (Attributes)
--------------------------------        ----        ----        ------- ----- ------------
CSEG                                00000078    0000137E =        4990. bytes (REL,CON,CODE)

      Value  Global                              Global Defined In Module
      -----  --------------------------------   ------------------------
C:   00000214  A$buffer_inputs$1052               buffer_inputs
C:   00000216  A$buffer_inputs$1053               buffer_inputs
C:   00000218  A$buffer_inputs$1054               buffer_inputs
C:   0000021A  A$buffer_inputs$1055               buffer_inputs
C:   0000021C  A$buffer_inputs$1058               buffer_inputs
C:   0000021C  C$buffer_inputs.c$79$1_4$49        buffer_inputs
C:   0000021E  A$buffer_inputs$1059               buffer_inputs
C:   00000220  A$buffer_inputs$1060               buffer_inputs
C:   00000221  A$buffer_inputs$1061               buffer_inputs
C:   00000222  A$buffer_inputs$1062               buffer_inputs
C:   00000224  A$buffer_inputs$1063               buffer_inputs
C:   00000225  A$buffer_inputs$1064               buffer_inputs
C:   00000227  A$buffer_inputs$1065               buffer_inputs
C:   00000229  A$buffer_inputs$1066               buffer_inputs
C:   0000022B  A$buffer_inputs$1067               buffer_inputs
C:   0000022D  A$buffer_inputs$1068               buffer_inputs
C:   0000022E  A$buffer_inputs$1069               buffer_inputs
C:   00000230  A$buffer_inputs$1070               buffer_inputs
C:   00000231  A$buffer_inputs$1071               buffer_inputs
C:   00000233  A$buffer_inputs$1072               buffer_inputs
C:   00000234  A$buffer_inputs$1073               buffer_inputs
C:   00000236  A$buffer_inputs$1074               buffer_inputs
C:   00000238  A$buffer_inputs$1075               buffer_inputs
C:   0000023A  A$buffer_inputs$1076               buffer_inputs
C:   0000023B  A$buffer_inputs$1077               buffer_inputs
C:   0000023D  A$buffer_inputs$1078               buffer_inputs
C:   0000023F  A$buffer_inputs$1081               buffer_inputs
C:   0000023F  C$buffer_inputs.c$81$2_4$50        buffer_inputs
C:   00000241  A$buffer_inputs$1082               buffer_inputs
C:   00000243  A$buffer_inputs$1083               buffer_inputs
C:   00000245  A$buffer_inputs$1084               buffer_inputs
C:   00000247  A$buffer_inputs$1085               buffer_inputs
C:   00000249  A$buffer_inputs$1086               buffer_inputs
C:   0000024B  A$buffer_inputs$1087               buffer_inputs
C:   0000024E  A$buffer_inputs$1088               buffer_inputs
C:   00000250  A$buffer_inputs$1089               buffer_inputs
C:   00000252  A$buffer_inputs$1090               buffer_inputs
C:   00000254  A$buffer_inputs$1091               buffer_inputs
C:   00000256  A$buffer_inputs$1094               buffer_inputs
C:   00000256  C$buffer_inputs.c$82$2_4$50        buffer_inputs
C:   00000258  A$buffer_inputs$1095               buffer_inputs
C:   0000025A  A$buffer_inputs$1096               buffer_inputs
C:   0000025C  A$buffer_inputs$1097               buffer_inputs
C:   0000025E  A$buffer_inputs$1098               buffer_inputs
C:   00000260  A$buffer_inputs$1099               buffer_inputs
C:   00000262  A$buffer_inputs$1100               buffer_inputs
C:   00000264  A$buffer_inputs$1101               buffer_inputs
C:   00000266  A$buffer_inputs$1102               buffer_inputs
C:   00000269  A$buffer_inputs$1103               buffer_inputs
C:   0000026B  A$buffer_inputs$1104               buffer_inputs
C:   0000026D  A$buffer_inputs$1105               buffer_inputs
ASxxxx Linker V03.00 + NoICE + sdld,  page 30.
Hexadecimal  [32-Bits]

Area                                    Addr        Size        Decimal Bytes (Attributes)
--------------------------------        ----        ----        ------- ----- ------------
CSEG                                00000078    0000137E =        4990. bytes (REL,CON,CODE)

      Value  Global                              Global Defined In Module
      -----  --------------------------------   ------------------------
C:   0000026F  A$buffer_inputs$1106               buffer_inputs
C:   00000271  A$buffer_inputs$1107               buffer_inputs
C:   00000273  A$buffer_inputs$1110               buffer_inputs
C:   00000273  C$buffer_inputs.c$83$2_4$50        buffer_inputs
C:   00000275  A$buffer_inputs$1111               buffer_inputs
C:   00000277  A$buffer_inputs$1112               buffer_inputs
C:   00000279  A$buffer_inputs$1116               buffer_inputs
C:   00000279  C$buffer_inputs.c$87$2_4$51        buffer_inputs
C:   0000027B  A$buffer_inputs$1117               buffer_inputs
C:   0000027D  A$buffer_inputs$1118               buffer_inputs
C:   0000027F  A$buffer_inputs$1119               buffer_inputs
C:   00000281  A$buffer_inputs$1120               buffer_inputs
C:   00000284  A$buffer_inputs$1121               buffer_inputs
C:   00000286  A$buffer_inputs$1122               buffer_inputs
C:   00000288  A$buffer_inputs$1125               buffer_inputs
C:   00000288  C$buffer_inputs.c$88$2_4$51        buffer_inputs
C:   0000028B  A$buffer_inputs$1131               buffer_inputs
C:   0000028B  C$buffer_inputs.c$90$1_4$45        buffer_inputs
C:   0000028B  XG$getinp_48_4800$0$0              buffer_inputs
C:   0000028C  A$buffer_inputs$1153               buffer_inputs
C:   0000028C  C$buffer_inputs.c$105$1_0$52       buffer_inputs
C:   0000028C  C$buffer_inputs.c$98$1_4$52        buffer_inputs
C:   0000028C  G$getinp_30_300$0$0                buffer_inputs
C:   0000028C  _getinp_30_300                     buffer_inputs
C:   0000028E  A$buffer_inputs$1154               buffer_inputs
C:   00000290  A$buffer_inputs$1155               buffer_inputs
C:   00000292  A$buffer_inputs$1156               buffer_inputs
C:   00000294  A$buffer_inputs$1157               buffer_inputs
C:   00000297  A$buffer_inputs$1158               buffer_inputs
C:   00000299  A$buffer_inputs$1159               buffer_inputs
C:   0000029B  A$buffer_inputs$1162               buffer_inputs
C:   0000029B  C$buffer_inputs.c$108$1_0$52       buffer_inputs
C:   0000029E  A$buffer_inputs$1163               buffer_inputs
C:   000002A0  A$buffer_inputs$1164               buffer_inputs
C:   000002A3  A$buffer_inputs$1167               buffer_inputs
C:   000002A3  C$buffer_inputs.c$109$1_1$53       buffer_inputs
C:   000002A5  A$buffer_inputs$1168               buffer_inputs
C:   000002A6  A$buffer_inputs$1169               buffer_inputs
C:   000002A8  A$buffer_inputs$1170               buffer_inputs
C:   000002AA  A$buffer_inputs$1171               buffer_inputs
C:   000002AB  A$buffer_inputs$1174               buffer_inputs
C:   000002AB  C$buffer_inputs.c$110$1_1$53       buffer_inputs
C:   000002AD  A$buffer_inputs$1175               buffer_inputs
C:   000002AF  A$buffer_inputs$1176               buffer_inputs
C:   000002B1  A$buffer_inputs$1177               buffer_inputs
C:   000002B3  A$buffer_inputs$1178               buffer_inputs
C:   000002B5  A$buffer_inputs$1179               buffer_inputs
C:   000002B7  A$buffer_inputs$1180               buffer_inputs
C:   000002B9  A$buffer_inputs$1181               buffer_inputs
C:   000002BB  A$buffer_inputs$1182               buffer_inputs
C:   000002BE  A$buffer_inputs$1183               buffer_inputs
ASxxxx Linker V03.00 + NoICE + sdld,  page 31.
Hexadecimal  [32-Bits]

Area                                    Addr        Size        Decimal Bytes (Attributes)
--------------------------------        ----        ----        ------- ----- ------------
CSEG                                00000078    0000137E =        4990. bytes (REL,CON,CODE)

      Value  Global                              Global Defined In Module
      -----  --------------------------------   ------------------------
C:   000002C0  A$buffer_inputs$1184               buffer_inputs
C:   000002C2  A$buffer_inputs$1185               buffer_inputs
C:   000002C4  A$buffer_inputs$1188               buffer_inputs
C:   000002C4  C$buffer_inputs.c$113$1_1$53       buffer_inputs
C:   000002C7  A$buffer_inputs$1189               buffer_inputs
C:   000002C9  A$buffer_inputs$1190               buffer_inputs
C:   000002CC  A$buffer_inputs$1193               buffer_inputs
C:   000002CC  C$buffer_inputs.c$114$1_2$54       buffer_inputs
C:   000002CE  A$buffer_inputs$1194               buffer_inputs
C:   000002CF  A$buffer_inputs$1195               buffer_inputs
C:   000002D1  A$buffer_inputs$1196               buffer_inputs
C:   000002D3  A$buffer_inputs$1197               buffer_inputs
C:   000002D4  A$buffer_inputs$1200               buffer_inputs
C:   000002D4  C$buffer_inputs.c$115$1_2$54       buffer_inputs
C:   000002D6  A$buffer_inputs$1201               buffer_inputs
C:   000002D8  A$buffer_inputs$1202               buffer_inputs
C:   000002DA  A$buffer_inputs$1203               buffer_inputs
C:   000002DC  A$buffer_inputs$1204               buffer_inputs
C:   000002DE  A$buffer_inputs$1205               buffer_inputs
C:   000002E0  A$buffer_inputs$1206               buffer_inputs
C:   000002E2  A$buffer_inputs$1207               buffer_inputs
C:   000002E4  A$buffer_inputs$1208               buffer_inputs
C:   000002E7  A$buffer_inputs$1209               buffer_inputs
C:   000002E9  A$buffer_inputs$1210               buffer_inputs
C:   000002EB  A$buffer_inputs$1211               buffer_inputs
C:   000002ED  A$buffer_inputs$1214               buffer_inputs
C:   000002ED  C$buffer_inputs.c$118$1_2$54       buffer_inputs
C:   000002F0  A$buffer_inputs$1215               buffer_inputs
C:   000002F2  A$buffer_inputs$1216               buffer_inputs
C:   000002F5  A$buffer_inputs$1219               buffer_inputs
C:   000002F5  C$buffer_inputs.c$119$1_3$55       buffer_inputs
C:   000002F7  A$buffer_inputs$1220               buffer_inputs
C:   000002F8  A$buffer_inputs$1221               buffer_inputs
C:   000002FA  A$buffer_inputs$1222               buffer_inputs
C:   000002FC  A$buffer_inputs$1223               buffer_inputs
C:   000002FD  A$buffer_inputs$1226               buffer_inputs
C:   000002FD  C$buffer_inputs.c$120$1_3$55       buffer_inputs
C:   000002FF  A$buffer_inputs$1227               buffer_inputs
C:   00000301  A$buffer_inputs$1228               buffer_inputs
C:   00000303  A$buffer_inputs$1229               buffer_inputs
C:   00000305  A$buffer_inputs$1230               buffer_inputs
C:   00000307  A$buffer_inputs$1231               buffer_inputs
C:   00000309  A$buffer_inputs$1232               buffer_inputs
C:   0000030B  A$buffer_inputs$1233               buffer_inputs
C:   0000030D  A$buffer_inputs$1234               buffer_inputs
C:   00000310  A$buffer_inputs$1235               buffer_inputs
C:   00000312  A$buffer_inputs$1236               buffer_inputs
C:   00000314  A$buffer_inputs$1237               buffer_inputs
C:   00000316  A$buffer_inputs$1238               buffer_inputs
C:   00000318  A$buffer_inputs$1239               buffer_inputs
C:   0000031A  A$buffer_inputs$1240               buffer_inputs
ASxxxx Linker V03.00 + NoICE + sdld,  page 32.
Hexadecimal  [32-Bits]

Area                                    Addr        Size        Decimal Bytes (Attributes)
--------------------------------        ----        ----        ------- ----- ------------
CSEG                                00000078    0000137E =        4990. bytes (REL,CON,CODE)

      Value  Global                              Global Defined In Module
      -----  --------------------------------   ------------------------
C:   0000031C  A$buffer_inputs$1241               buffer_inputs
C:   0000031E  A$buffer_inputs$1242               buffer_inputs
C:   00000320  A$buffer_inputs$1243               buffer_inputs
C:   00000322  A$buffer_inputs$1246               buffer_inputs
C:   00000322  C$buffer_inputs.c$123$1_3$55       buffer_inputs
C:   00000325  A$buffer_inputs$1247               buffer_inputs
C:   00000326  A$buffer_inputs$1248               buffer_inputs
C:   00000327  A$buffer_inputs$1249               buffer_inputs
C:   00000328  A$buffer_inputs$1250               buffer_inputs
C:   00000329  A$buffer_inputs$1251               buffer_inputs
C:   0000032A  A$buffer_inputs$1252               buffer_inputs
C:   0000032D  A$buffer_inputs$1253               buffer_inputs
C:   0000032F  A$buffer_inputs$1254               buffer_inputs
C:   00000331  A$buffer_inputs$1255               buffer_inputs
C:   00000333  A$buffer_inputs$1256               buffer_inputs
C:   00000335  A$buffer_inputs$1257               buffer_inputs
C:   00000338  A$buffer_inputs$1258               buffer_inputs
C:   0000033A  A$buffer_inputs$1259               buffer_inputs
C:   0000033C  A$buffer_inputs$1260               buffer_inputs
C:   0000033E  A$buffer_inputs$1261               buffer_inputs
C:   00000340  A$buffer_inputs$1262               buffer_inputs
C:   00000342  A$buffer_inputs$1263               buffer_inputs
C:   00000344  A$buffer_inputs$1264               buffer_inputs
C:   00000347  A$buffer_inputs$1265               buffer_inputs
C:   00000348  A$buffer_inputs$1266               buffer_inputs
C:   00000349  A$buffer_inputs$1267               buffer_inputs
C:   0000034A  A$buffer_inputs$1268               buffer_inputs
C:   0000034B  A$buffer_inputs$1269               buffer_inputs
C:   0000034C  A$buffer_inputs$1270               buffer_inputs
C:   0000034F  A$buffer_inputs$1271               buffer_inputs
C:   00000351  A$buffer_inputs$1272               buffer_inputs
C:   00000353  A$buffer_inputs$1273               buffer_inputs
C:   00000355  A$buffer_inputs$1274               buffer_inputs
C:   00000357  A$buffer_inputs$1275               buffer_inputs
C:   0000035A  A$buffer_inputs$1276               buffer_inputs
C:   0000035C  A$buffer_inputs$1277               buffer_inputs
C:   0000035E  A$buffer_inputs$1278               buffer_inputs
C:   00000360  A$buffer_inputs$1279               buffer_inputs
C:   00000362  A$buffer_inputs$1280               buffer_inputs
C:   00000364  A$buffer_inputs$1281               buffer_inputs
C:   00000366  A$buffer_inputs$1282               buffer_inputs
C:   00000367  A$buffer_inputs$1283               buffer_inputs
C:   00000368  A$buffer_inputs$1284               buffer_inputs
C:   00000369  A$buffer_inputs$1285               buffer_inputs
C:   0000036A  A$buffer_inputs$1286               buffer_inputs
C:   0000036B  A$buffer_inputs$1287               buffer_inputs
C:   0000036C  A$buffer_inputs$1288               buffer_inputs
C:   0000036D  A$buffer_inputs$1289               buffer_inputs
C:   0000036E  A$buffer_inputs$1290               buffer_inputs
C:   0000036F  A$buffer_inputs$1291               buffer_inputs
C:   00000370  A$buffer_inputs$1292               buffer_inputs
ASxxxx Linker V03.00 + NoICE + sdld,  page 33.
Hexadecimal  [32-Bits]

Area                                    Addr        Size        Decimal Bytes (Attributes)
--------------------------------        ----        ----        ------- ----- ------------
CSEG                                00000078    0000137E =        4990. bytes (REL,CON,CODE)

      Value  Global                              Global Defined In Module
      -----  --------------------------------   ------------------------
C:   00000371  A$buffer_inputs$1293               buffer_inputs
C:   00000372  A$buffer_inputs$1296               buffer_inputs
C:   00000372  C$buffer_inputs.c$124$1_3$55       buffer_inputs
C:   00000374  A$buffer_inputs$1297               buffer_inputs
C:   00000376  A$buffer_inputs$1298               buffer_inputs
C:   00000378  A$buffer_inputs$1299               buffer_inputs
C:   0000037A  A$buffer_inputs$1300               buffer_inputs
C:   0000037C  A$buffer_inputs$1301               buffer_inputs
C:   0000037E  A$buffer_inputs$1302               buffer_inputs
C:   00000380  A$buffer_inputs$1303               buffer_inputs
C:   00000382  A$buffer_inputs$1304               buffer_inputs
C:   00000385  A$buffer_inputs$1305               buffer_inputs
C:   00000387  A$buffer_inputs$1306               buffer_inputs
C:   00000389  A$buffer_inputs$1307               buffer_inputs
C:   0000038B  A$buffer_inputs$1308               buffer_inputs
C:   0000038D  A$buffer_inputs$1309               buffer_inputs
C:   0000038F  A$buffer_inputs$1312               buffer_inputs
C:   0000038F  C$buffer_inputs.c$127$1_3$55       buffer_inputs
C:   00000391  A$buffer_inputs$1313               buffer_inputs
C:   00000393  A$buffer_inputs$1314               buffer_inputs
C:   00000394  A$buffer_inputs$1315               buffer_inputs
C:   00000395  A$buffer_inputs$1316               buffer_inputs
C:   00000397  A$buffer_inputs$1317               buffer_inputs
C:   00000398  A$buffer_inputs$1318               buffer_inputs
C:   0000039A  A$buffer_inputs$1319               buffer_inputs
C:   0000039C  A$buffer_inputs$1320               buffer_inputs
C:   0000039E  A$buffer_inputs$1321               buffer_inputs
C:   000003A0  A$buffer_inputs$1322               buffer_inputs
C:   000003A1  A$buffer_inputs$1323               buffer_inputs
C:   000003A3  A$buffer_inputs$1324               buffer_inputs
C:   000003A4  A$buffer_inputs$1325               buffer_inputs
C:   000003A6  A$buffer_inputs$1326               buffer_inputs
C:   000003A7  A$buffer_inputs$1327               buffer_inputs
C:   000003A9  A$buffer_inputs$1330               buffer_inputs
C:   000003A9  C$buffer_inputs.c$129$2_3$56       buffer_inputs
C:   000003AB  A$buffer_inputs$1331               buffer_inputs
C:   000003AD  A$buffer_inputs$1332               buffer_inputs
C:   000003AF  A$buffer_inputs$1333               buffer_inputs
C:   000003B1  A$buffer_inputs$1334               buffer_inputs
C:   000003B3  A$buffer_inputs$1335               buffer_inputs
C:   000003B5  A$buffer_inputs$1336               buffer_inputs
C:   000003B8  A$buffer_inputs$1337               buffer_inputs
C:   000003BA  A$buffer_inputs$1338               buffer_inputs
C:   000003BC  A$buffer_inputs$1339               buffer_inputs
C:   000003BE  A$buffer_inputs$1340               buffer_inputs
C:   000003C0  A$buffer_inputs$1343               buffer_inputs
C:   000003C0  C$buffer_inputs.c$130$2_3$56       buffer_inputs
C:   000003C2  A$buffer_inputs$1344               buffer_inputs
C:   000003C4  A$buffer_inputs$1345               buffer_inputs
C:   000003C6  A$buffer_inputs$1346               buffer_inputs
C:   000003C8  A$buffer_inputs$1347               buffer_inputs
ASxxxx Linker V03.00 + NoICE + sdld,  page 34.
Hexadecimal  [32-Bits]

Area                                    Addr        Size        Decimal Bytes (Attributes)
--------------------------------        ----        ----        ------- ----- ------------
CSEG                                00000078    0000137E =        4990. bytes (REL,CON,CODE)

      Value  Global                              Global Defined In Module
      -----  --------------------------------   ------------------------
C:   000003CA  A$buffer_inputs$1348               buffer_inputs
C:   000003CC  A$buffer_inputs$1349               buffer_inputs
C:   000003CE  A$buffer_inputs$1350               buffer_inputs
C:   000003D0  A$buffer_inputs$1351               buffer_inputs
C:   000003D3  A$buffer_inputs$1352               buffer_inputs
C:   000003D5  A$buffer_inputs$1353               buffer_inputs
C:   000003D7  A$buffer_inputs$1354               buffer_inputs
C:   000003D9  A$buffer_inputs$1355               buffer_inputs
C:   000003DB  A$buffer_inputs$1356               buffer_inputs
C:   000003DD  A$buffer_inputs$1359               buffer_inputs
C:   000003DD  C$buffer_inputs.c$131$2_3$56       buffer_inputs
C:   000003DF  A$buffer_inputs$1360               buffer_inputs
C:   000003E1  A$buffer_inputs$1361               buffer_inputs
C:   000003E3  A$buffer_inputs$1365               buffer_inputs
C:   000003E3  C$buffer_inputs.c$135$2_3$57       buffer_inputs
C:   000003E5  A$buffer_inputs$1366               buffer_inputs
C:   000003E7  A$buffer_inputs$1367               buffer_inputs
C:   000003E9  A$buffer_inputs$1368               buffer_inputs
C:   000003EB  A$buffer_inputs$1369               buffer_inputs
C:   000003EE  A$buffer_inputs$1370               buffer_inputs
C:   000003F0  A$buffer_inputs$1371               buffer_inputs
C:   000003F2  A$buffer_inputs$1374               buffer_inputs
C:   000003F2  C$buffer_inputs.c$136$2_3$57       buffer_inputs
C:   000003F5  A$buffer_inputs$1380               buffer_inputs
C:   000003F5  C$buffer_inputs.c$138$1_3$52       buffer_inputs
C:   000003F5  XG$getinp_30_300$0$0               buffer_inputs
C:   000003F6  A$buffer_inputs$1399               buffer_inputs
C:   000003F6  C$buffer_inputs.c$145$1_3$58       buffer_inputs
C:   000003F6  C$buffer_inputs.c$152$1_0$58       buffer_inputs
C:   000003F6  G$del_buff$0$0                     buffer_inputs
C:   000003F6  _del_buff                          buffer_inputs
C:   000003F9  A$buffer_inputs$1400               buffer_inputs
C:   000003FB  A$buffer_inputs$1401               buffer_inputs
C:   000003FE  A$buffer_inputs$1404               buffer_inputs
C:   000003FE  C$buffer_inputs.c$153$1_1$59       buffer_inputs
C:   00000400  A$buffer_inputs$1405               buffer_inputs
C:   00000401  A$buffer_inputs$1406               buffer_inputs
C:   00000403  A$buffer_inputs$1407               buffer_inputs
C:   00000405  A$buffer_inputs$1408               buffer_inputs
C:   00000406  A$buffer_inputs$1411               buffer_inputs
C:   00000406  C$buffer_inputs.c$154$1_1$59       buffer_inputs
C:   00000408  A$buffer_inputs$1412               buffer_inputs
C:   0000040A  A$buffer_inputs$1413               buffer_inputs
C:   0000040C  A$buffer_inputs$1414               buffer_inputs
C:   0000040E  A$buffer_inputs$1415               buffer_inputs
C:   00000410  A$buffer_inputs$1416               buffer_inputs
C:   00000412  A$buffer_inputs$1417               buffer_inputs
C:   00000414  A$buffer_inputs$1418               buffer_inputs
C:   00000416  A$buffer_inputs$1419               buffer_inputs
C:   00000419  A$buffer_inputs$1420               buffer_inputs
C:   0000041B  A$buffer_inputs$1421               buffer_inputs
ASxxxx Linker V03.00 + NoICE + sdld,  page 35.
Hexadecimal  [32-Bits]

Area                                    Addr        Size        Decimal Bytes (Attributes)
--------------------------------        ----        ----        ------- ----- ------------
CSEG                                00000078    0000137E =        4990. bytes (REL,CON,CODE)

      Value  Global                              Global Defined In Module
      -----  --------------------------------   ------------------------
C:   0000041D  A$buffer_inputs$1422               buffer_inputs
C:   0000041F  A$buffer_inputs$1425               buffer_inputs
C:   0000041F  C$buffer_inputs.c$157$1_1$59       buffer_inputs
C:   00000422  A$buffer_inputs$1426               buffer_inputs
C:   00000424  A$buffer_inputs$1427               buffer_inputs
C:   00000427  A$buffer_inputs$1430               buffer_inputs
C:   00000427  C$buffer_inputs.c$158$1_2$60       buffer_inputs
C:   00000429  A$buffer_inputs$1431               buffer_inputs
C:   0000042A  A$buffer_inputs$1432               buffer_inputs
C:   0000042C  A$buffer_inputs$1433               buffer_inputs
C:   0000042E  A$buffer_inputs$1434               buffer_inputs
C:   0000042F  A$buffer_inputs$1437               buffer_inputs
C:   0000042F  C$buffer_inputs.c$159$1_2$60       buffer_inputs
C:   00000431  A$buffer_inputs$1438               buffer_inputs
C:   00000433  A$buffer_inputs$1439               buffer_inputs
C:   00000435  A$buffer_inputs$1440               buffer_inputs
C:   00000437  A$buffer_inputs$1441               buffer_inputs
C:   00000439  A$buffer_inputs$1442               buffer_inputs
C:   0000043B  A$buffer_inputs$1443               buffer_inputs
C:   0000043D  A$buffer_inputs$1444               buffer_inputs
C:   0000043F  A$buffer_inputs$1445               buffer_inputs
C:   00000442  A$buffer_inputs$1446               buffer_inputs
C:   00000444  A$buffer_inputs$1447               buffer_inputs
C:   00000446  A$buffer_inputs$1448               buffer_inputs
C:   00000448  A$buffer_inputs$1449               buffer_inputs
C:   0000044A  A$buffer_inputs$1450               buffer_inputs
C:   0000044C  A$buffer_inputs$1451               buffer_inputs
C:   0000044E  A$buffer_inputs$1452               buffer_inputs
C:   00000450  A$buffer_inputs$1455               buffer_inputs
C:   00000450  C$buffer_inputs.c$162$1_2$60       buffer_inputs
C:   00000453  A$buffer_inputs$1456               buffer_inputs
C:   00000454  A$buffer_inputs$1457               buffer_inputs
C:   00000455  A$buffer_inputs$1458               buffer_inputs
C:   00000456  A$buffer_inputs$1459               buffer_inputs
C:   00000457  A$buffer_inputs$1460               buffer_inputs
C:   00000458  A$buffer_inputs$1461               buffer_inputs
C:   0000045B  A$buffer_inputs$1462               buffer_inputs
C:   0000045D  A$buffer_inputs$1463               buffer_inputs
C:   0000045F  A$buffer_inputs$1464               buffer_inputs
C:   00000462  A$buffer_inputs$1465               buffer_inputs
C:   00000464  A$buffer_inputs$1466               buffer_inputs
C:   00000467  A$buffer_inputs$1467               buffer_inputs
C:   00000469  A$buffer_inputs$1468               buffer_inputs
C:   0000046B  A$buffer_inputs$1469               buffer_inputs
C:   0000046C  A$buffer_inputs$1470               buffer_inputs
C:   0000046D  A$buffer_inputs$1471               buffer_inputs
C:   0000046E  A$buffer_inputs$1472               buffer_inputs
C:   00000470  A$buffer_inputs$1473               buffer_inputs
C:   00000471  A$buffer_inputs$1476               buffer_inputs
C:   00000471  C$buffer_inputs.c$163$1_2$60       buffer_inputs
C:   00000473  A$buffer_inputs$1477               buffer_inputs
ASxxxx Linker V03.00 + NoICE + sdld,  page 36.
Hexadecimal  [32-Bits]

Area                                    Addr        Size        Decimal Bytes (Attributes)
--------------------------------        ----        ----        ------- ----- ------------
CSEG                                00000078    0000137E =        4990. bytes (REL,CON,CODE)

      Value  Global                              Global Defined In Module
      -----  --------------------------------   ------------------------
C:   00000475  A$buffer_inputs$1478               buffer_inputs
C:   00000477  A$buffer_inputs$1479               buffer_inputs
C:   00000479  A$buffer_inputs$1480               buffer_inputs
C:   0000047B  A$buffer_inputs$1481               buffer_inputs
C:   0000047D  A$buffer_inputs$1482               buffer_inputs
C:   0000047F  A$buffer_inputs$1483               buffer_inputs
C:   00000481  A$buffer_inputs$1484               buffer_inputs
C:   00000484  A$buffer_inputs$1485               buffer_inputs
C:   00000486  A$buffer_inputs$1486               buffer_inputs
C:   00000488  A$buffer_inputs$1487               buffer_inputs
C:   0000048A  A$buffer_inputs$1488               buffer_inputs
C:   0000048C  A$buffer_inputs$1489               buffer_inputs
C:   0000048E  A$buffer_inputs$1492               buffer_inputs
C:   0000048E  C$buffer_inputs.c$164$1_2$60       buffer_inputs
C:   00000490  A$buffer_inputs$1493               buffer_inputs
C:   00000492  A$buffer_inputs$1498               buffer_inputs
C:   00000492  C$buffer_inputs.c$165$1_2$58       buffer_inputs
C:   00000492  XG$del_buff$0$0                    buffer_inputs
C:   00000493  A$characters$809                   characters
C:   00000493  C$characters.c$24$0_0$43           characters
C:   00000493  Fbuffer_inputs$__str_1$0_0$0       buffer_inputs
C:   00000493  Fbuffer_inputs$__str_10$0_0$0      buffer_inputs
C:   00000493  Fbuffer_inputs$__str_11$0_0$0      buffer_inputs
C:   00000493  Fbuffer_inputs$__str_12$0_0$0      buffer_inputs
C:   00000493  Fbuffer_inputs$__str_13$0_0$0      buffer_inputs
C:   00000493  Fbuffer_inputs$__str_14$0_0$0      buffer_inputs
C:   00000493  Fbuffer_inputs$__str_15$0_0$0      buffer_inputs
C:   00000493  Fbuffer_inputs$__str_2$0_0$0       buffer_inputs
C:   00000493  Fbuffer_inputs$__str_3$0_0$0       buffer_inputs
C:   00000493  Fbuffer_inputs$__str_4$0_0$0       buffer_inputs
C:   00000493  Fbuffer_inputs$__str_5$0_0$0       buffer_inputs
C:   00000493  Fbuffer_inputs$__str_6$0_0$0       buffer_inputs
C:   00000493  Fbuffer_inputs$__str_7$0_0$0       buffer_inputs
C:   00000493  Fbuffer_inputs$__str_8$0_0$0       buffer_inputs
C:   00000493  Fbuffer_inputs$__str_9$0_0$0       buffer_inputs
C:   00000493  G$dataout$0$0                      characters
C:   00000493  _dataout                           characters
C:   00000495  A$characters$810                   characters
C:   00000497  A$characters$811                   characters
C:   0000049A  A$characters$812                   characters
C:   0000049B  A$characters$813                   characters
C:   0000049C  A$characters$814                   characters
C:   0000049D  A$characters$815                   characters
C:   0000049E  A$characters$818                   characters
C:   0000049E  C$characters.c$27$1_0$43           characters
C:   000004A1  A$characters$819                   characters
C:   000004A2  A$characters$820                   characters
C:   000004A3  A$characters$821                   characters
C:   000004A4  A$characters$822                   characters
C:   000004A5  A$characters$823                   characters
C:   000004A6  A$characters$824                   characters
ASxxxx Linker V03.00 + NoICE + sdld,  page 37.
Hexadecimal  [32-Bits]

Area                                    Addr        Size        Decimal Bytes (Attributes)
--------------------------------        ----        ----        ------- ----- ------------
CSEG                                00000078    0000137E =        4990. bytes (REL,CON,CODE)

      Value  Global                              Global Defined In Module
      -----  --------------------------------   ------------------------
C:   000004A9  A$characters$825                   characters
C:   000004AA  A$characters$826                   characters
C:   000004AB  A$characters$827                   characters
C:   000004AC  A$characters$828                   characters
C:   000004AD  A$characters$829                   characters
C:   000004AE  A$characters$834                   characters
C:   000004AE  C$characters.c$28$1_0$43           characters
C:   000004AE  XG$dataout$0$0                     characters
C:   000004AF  A$characters$856                   characters
C:   000004AF  C$characters.c$37$1_0$45           characters
C:   000004AF  G$enter_characters$0$0             characters
C:   000004AF  _enter_characters                  characters
C:   000004B1  A$characters$857                   characters
C:   000004B3  A$characters$858                   characters
C:   000004B6  A$characters$859                   characters
C:   000004B7  A$characters$860                   characters
C:   000004B8  A$characters$861                   characters
C:   000004B9  A$characters$862                   characters
C:   000004BA  A$characters$865                   characters
C:   000004BA  C$characters.c$48$1_0$45           characters
C:   000004BD  A$characters$866                   characters
C:   000004BE  A$characters$867                   characters
C:   000004BF  A$characters$868                   characters
C:   000004C0  A$characters$869                   characters
C:   000004C1  A$characters$870                   characters
C:   000004C2  A$characters$871                   characters
C:   000004C5  A$characters$872                   characters
C:   000004C8  A$characters$873                   characters
C:   000004CA  A$characters$875                   characters
C:   000004CD  A$characters$876                   characters
C:   000004D0  A$characters$877                   characters
C:   000004D3  A$characters$879                   characters
C:   000004D6  A$characters$880                   characters
C:   000004D9  A$characters$881                   characters
C:   000004DC  A$characters$883                   characters
C:   000004DF  A$characters$884                   characters
C:   000004E2  A$characters$885                   characters
C:   000004E5  A$characters$887                   characters
C:   000004E8  A$characters$888                   characters
C:   000004EB  A$characters$889                   characters
C:   000004EE  A$characters$891                   characters
C:   000004F1  A$characters$897                   characters
C:   000004F1  C$characters.c$50$2_0$46           characters
C:   000004F1  C$characters.c$52$3_0$47           characters
C:   000004F4  A$characters$898                   characters
C:   000004F7  A$characters$901                   characters
C:   000004F7  C$characters.c$53$3_0$47           characters
C:   000004F9  A$characters$902                   characters
C:   000004FB  A$characters$903                   characters
C:   000004FD  A$characters$904                   characters
C:   000004FF  A$characters$905                   characters
ASxxxx Linker V03.00 + NoICE + sdld,  page 38.
Hexadecimal  [32-Bits]

Area                                    Addr        Size        Decimal Bytes (Attributes)
--------------------------------        ----        ----        ------- ----- ------------
CSEG                                00000078    0000137E =        4990. bytes (REL,CON,CODE)

      Value  Global                              Global Defined In Module
      -----  --------------------------------   ------------------------
C:   00000502  A$characters$906                   characters
C:   00000504  A$characters$907                   characters
C:   00000506  A$characters$910                   characters
C:   00000506  C$characters.c$55$3_0$47           characters
C:   00000509  A$characters$911                   characters
C:   0000050B  A$characters$912                   characters
C:   0000050D  A$characters$913                   characters
C:   00000510  A$characters$914                   characters
C:   00000511  A$characters$915                   characters
C:   00000512  A$characters$916                   characters
C:   00000513  A$characters$917                   characters
C:   00000514  A$characters$918                   characters
C:   00000515  A$characters$921                   characters
C:   00000515  C$characters.c$57$3_0$47           characters
C:   00000518  A$characters$922                   characters
C:   00000519  A$characters$923                   characters
C:   0000051A  A$characters$924                   characters
C:   0000051B  A$characters$925                   characters
C:   0000051C  A$characters$926                   characters
C:   0000051D  A$characters$927                   characters
C:   0000051E  A$characters$928                   characters
C:   0000051F  A$characters$929                   characters
C:   00000520  A$characters$930                   characters
C:   00000521  A$characters$931                   characters
C:   00000522  A$characters$932                   characters
C:   00000523  A$characters$933                   characters
C:   00000524  A$characters$934                   characters
C:   00000526  A$characters$935                   characters
C:   00000527  A$characters$936                   characters
C:   00000528  A$characters$937                   characters
C:   0000052A  A$characters$938                   characters
C:   0000052B  A$characters$939                   characters
C:   0000052D  A$characters$940                   characters
C:   0000052F  A$characters$941                   characters
C:   00000531  A$characters$942                   characters
C:   00000533  A$characters$943                   characters
C:   00000536  A$characters$944                   characters
C:   00000538  A$characters$945                   characters
C:   0000053A  A$characters$946                   characters
C:   0000053C  A$characters$947                   characters
C:   0000053E  A$characters$948                   characters
C:   00000540  A$characters$949                   characters
C:   00000542  A$characters$950                   characters
C:   00000543  A$characters$951                   characters
C:   00000544  A$characters$952                   characters
C:   00000545  A$characters$953                   characters
C:   00000546  A$characters$954                   characters
C:   00000547  A$characters$957                   characters
C:   00000547  C$characters.c$61$3_0$47           characters
C:   0000054A  A$characters$958                   characters
C:   0000054B  A$characters$959                   characters
ASxxxx Linker V03.00 + NoICE + sdld,  page 39.
Hexadecimal  [32-Bits]

Area                                    Addr        Size        Decimal Bytes (Attributes)
--------------------------------        ----        ----        ------- ----- ------------
CSEG                                00000078    0000137E =        4990. bytes (REL,CON,CODE)

      Value  Global                              Global Defined In Module
      -----  --------------------------------   ------------------------
C:   0000054C  A$characters$960                   characters
C:   0000054D  A$characters$961                   characters
C:   0000054E  A$characters$962                   characters
C:   0000054F  A$characters$963                   characters
C:   00000550  A$characters$964                   characters
C:   00000551  A$characters$965                   characters
C:   00000552  A$characters$966                   characters
C:   00000553  A$characters$967                   characters
C:   00000554  A$characters$968                   characters
C:   00000555  A$characters$969                   characters
C:   00000556  A$characters$970                   characters
C:   00000558  A$characters$971                   characters
C:   0000055A  A$characters$972                   characters
C:   0000055B  A$characters$973                   characters
C:   0000055D  A$characters$974                   characters
C:   0000055F  A$characters$975                   characters
C:   00000560  A$characters$976                   characters
C:   00000561  A$characters$977                   characters
C:   00000562  A$characters$978                   characters
C:   00000563  A$characters$979                   characters
C:   00000564  A$characters$980                   characters
C:   00000566  A$characters$983                   characters
C:   00000566  C$characters.c$63$4_0$48           characters
C:   00000568  A$characters$984                   characters
C:   0000056A  A$characters$985                   characters
C:   0000056C  A$characters$986                   characters
C:   0000056E  A$characters$987                   characters
C:   00000571  A$characters$988                   characters
C:   00000573  A$characters$989                   characters
C:   00000575  A$characters$990                   characters
C:   00000578  A$characters$994                   characters
C:   00000578  C$characters.c$67$4_0$49           characters
C:   0000057A  A$characters$995                   characters
C:   0000057B  A$characters$996                   characters
C:   0000057C  A$characters$997                   characters
C:   0000057D  A$characters$998                   characters
C:   0000057E  A$characters$999                   characters
C:   0000057F  A$characters$1000                  characters
C:   00000581  A$characters$1001                  characters
C:   00000583  A$characters$1002                  characters
C:   00000585  A$characters$1003                  characters
C:   00000587  A$characters$1004                  characters
C:   00000589  A$characters$1005                  characters
C:   0000058B  A$characters$1006                  characters
C:   0000058E  A$characters$1007                  characters
C:   00000590  A$characters$1008                  characters
C:   00000592  A$characters$1009                  characters
C:   00000594  A$characters$1012                  characters
C:   00000594  C$characters.c$68$4_0$49           characters
C:   00000597  A$characters$1013                  characters
C:   00000598  A$characters$1014                  characters
ASxxxx Linker V03.00 + NoICE + sdld,  page 40.
Hexadecimal  [32-Bits]

Area                                    Addr        Size        Decimal Bytes (Attributes)
--------------------------------        ----        ----        ------- ----- ------------
CSEG                                00000078    0000137E =        4990. bytes (REL,CON,CODE)

      Value  Global                              Global Defined In Module
      -----  --------------------------------   ------------------------
C:   00000599  A$characters$1015                  characters
C:   0000059A  A$characters$1016                  characters
C:   0000059B  A$characters$1017                  characters
C:   0000059C  A$characters$1018                  characters
C:   0000059E  A$characters$1019                  characters
C:   0000059F  A$characters$1020                  characters
C:   000005A0  A$characters$1021                  characters
C:   000005A1  A$characters$1022                  characters
C:   000005A2  A$characters$1023                  characters
C:   000005A3  A$characters$1024                  characters
C:   000005A6  A$characters$1025                  characters
C:   000005A7  A$characters$1026                  characters
C:   000005A9  A$characters$1027                  characters
C:   000005AA  A$characters$1028                  characters
C:   000005AB  A$characters$1029                  characters
C:   000005AD  A$characters$1030                  characters
C:   000005AF  A$characters$1031                  characters
C:   000005B1  A$characters$1032                  characters
C:   000005B3  A$characters$1033                  characters
C:   000005B5  A$characters$1034                  characters
C:   000005B7  A$characters$1035                  characters
C:   000005B9  A$characters$1036                  characters
C:   000005BC  A$characters$1037                  characters
C:   000005BE  A$characters$1038                  characters
C:   000005C0  A$characters$1039                  characters
C:   000005C2  A$characters$1042                  characters
C:   000005C2  C$characters.c$69$4_0$49           characters
C:   000005C5  A$characters$1043                  characters
C:   000005C6  A$characters$1044                  characters
C:   000005C7  A$characters$1045                  characters
C:   000005C8  A$characters$1046                  characters
C:   000005C9  A$characters$1047                  characters
C:   000005CA  A$characters$1048                  characters
C:   000005CB  A$characters$1049                  characters
C:   000005CC  A$characters$1050                  characters
C:   000005CD  A$characters$1051                  characters
C:   000005CE  A$characters$1052                  characters
C:   000005CF  A$characters$1053                  characters
C:   000005D0  A$characters$1054                  characters
C:   000005D1  A$characters$1055                  characters
C:   000005D3  A$characters$1056                  characters
C:   000005D5  A$characters$1057                  characters
C:   000005D6  A$characters$1058                  characters
C:   000005D8  A$characters$1059                  characters
C:   000005DA  A$characters$1060                  characters
C:   000005DB  A$characters$1061                  characters
C:   000005DC  A$characters$1062                  characters
C:   000005DD  A$characters$1063                  characters
C:   000005DE  A$characters$1064                  characters
C:   000005DF  A$characters$1065                  characters
C:   000005E2  A$characters$1066                  characters
ASxxxx Linker V03.00 + NoICE + sdld,  page 41.
Hexadecimal  [32-Bits]

Area                                    Addr        Size        Decimal Bytes (Attributes)
--------------------------------        ----        ----        ------- ----- ------------
CSEG                                00000078    0000137E =        4990. bytes (REL,CON,CODE)

      Value  Global                              Global Defined In Module
      -----  --------------------------------   ------------------------
C:   000005E3  A$characters$1067                  characters
C:   000005E4  A$characters$1068                  characters
C:   000005E5  A$characters$1069                  characters
C:   000005E6  A$characters$1070                  characters
C:   000005E7  A$characters$1071                  characters
C:   000005E9  A$characters$1072                  characters
C:   000005EA  A$characters$1073                  characters
C:   000005EB  A$characters$1074                  characters
C:   000005EC  A$characters$1075                  characters
C:   000005ED  A$characters$1076                  characters
C:   000005EE  A$characters$1077                  characters
C:   000005F0  A$characters$1078                  characters
C:   000005F2  A$characters$1079                  characters
C:   000005F4  A$characters$1080                  characters
C:   000005F6  A$characters$1081                  characters
C:   000005F8  A$characters$1082                  characters
C:   000005FA  A$characters$1083                  characters
C:   000005FC  A$characters$1084                  characters
C:   000005FE  A$characters$1085                  characters
C:   00000601  A$characters$1086                  characters
C:   00000603  A$characters$1087                  characters
C:   00000605  A$characters$1088                  characters
C:   00000607  A$characters$1091                  characters
C:   00000607  C$characters.c$70$4_0$49           characters
C:   0000060A  A$characters$1092                  characters
C:   0000060B  A$characters$1093                  characters
C:   0000060C  A$characters$1094                  characters
C:   0000060D  A$characters$1095                  characters
C:   0000060E  A$characters$1096                  characters
C:   0000060F  A$characters$1097                  characters
C:   00000610  A$characters$1098                  characters
C:   00000611  A$characters$1099                  characters
C:   00000612  A$characters$1100                  characters
C:   00000613  A$characters$1101                  characters
C:   00000614  A$characters$1102                  characters
C:   00000615  A$characters$1103                  characters
C:   00000616  A$characters$1104                  characters
C:   00000618  A$characters$1105                  characters
C:   00000619  A$characters$1106                  characters
C:   0000061A  A$characters$1107                  characters
C:   0000061C  A$characters$1108                  characters
C:   0000061D  A$characters$1109                  characters
C:   00000620  A$characters$1110                  characters
C:   00000621  A$characters$1111                  characters
C:   00000622  A$characters$1112                  characters
C:   00000623  A$characters$1113                  characters
C:   00000624  A$characters$1114                  characters
C:   00000625  A$characters$1115                  characters
C:   00000627  A$characters$1116                  characters
C:   00000629  A$characters$1117                  characters
C:   0000062A  A$characters$1118                  characters
ASxxxx Linker V03.00 + NoICE + sdld,  page 42.
Hexadecimal  [32-Bits]

Area                                    Addr        Size        Decimal Bytes (Attributes)
--------------------------------        ----        ----        ------- ----- ------------
CSEG                                00000078    0000137E =        4990. bytes (REL,CON,CODE)

      Value  Global                              Global Defined In Module
      -----  --------------------------------   ------------------------
C:   0000062B  A$characters$1119                  characters
C:   0000062C  A$characters$1120                  characters
C:   0000062D  A$characters$1121                  characters
C:   0000062E  A$characters$1124                  characters
C:   0000062E  C$characters.c$71$4_0$49           characters
C:   00000631  A$characters$1125                  characters
C:   00000632  A$characters$1126                  characters
C:   00000634  A$characters$1127                  characters
C:   00000635  A$characters$1128                  characters
C:   00000636  A$characters$1129                  characters
C:   00000637  A$characters$1130                  characters
C:   00000639  A$characters$1131                  characters
C:   0000063A  A$characters$1134                  characters
C:   0000063A  C$characters.c$72$4_0$49           characters
C:   0000063D  A$characters$1135                  characters
C:   0000063E  A$characters$1136                  characters
C:   00000640  A$characters$1137                  characters
C:   00000641  A$characters$1138                  characters
C:   00000642  A$characters$1139                  characters
C:   00000643  A$characters$1140                  characters
C:   00000645  A$characters$1141                  characters
C:   00000646  A$characters$1144                  characters
C:   00000646  C$characters.c$74$3_0$47           characters
C:   00000649  A$characters$1150                  characters
C:   00000649  C$characters.c$77$2_0$46           characters
C:   00000649  C$characters.c$79$3_0$50           characters
C:   0000064C  A$characters$1151                  characters
C:   0000064F  A$characters$1154                  characters
C:   0000064F  C$characters.c$80$3_0$50           characters
C:   00000651  A$characters$1155                  characters
C:   00000653  A$characters$1156                  characters
C:   00000655  A$characters$1157                  characters
C:   00000657  A$characters$1158                  characters
C:   0000065A  A$characters$1159                  characters
C:   0000065C  A$characters$1160                  characters
C:   0000065E  A$characters$1163                  characters
C:   0000065E  C$characters.c$82$3_0$50           characters
C:   00000661  A$characters$1164                  characters
C:   00000663  A$characters$1165                  characters
C:   00000665  A$characters$1166                  characters
C:   00000668  A$characters$1167                  characters
C:   00000669  A$characters$1168                  characters
C:   0000066A  A$characters$1169                  characters
C:   0000066B  A$characters$1170                  characters
C:   0000066C  A$characters$1171                  characters
C:   0000066D  A$characters$1174                  characters
C:   0000066D  C$characters.c$84$3_0$50           characters
C:   0000066E  A$characters$1175                  characters
C:   0000066F  A$characters$1176                  characters
C:   00000671  A$characters$1179                  characters
C:   00000671  C$characters.c$86$4_0$51           characters
ASxxxx Linker V03.00 + NoICE + sdld,  page 43.
Hexadecimal  [32-Bits]

Area                                    Addr        Size        Decimal Bytes (Attributes)
--------------------------------        ----        ----        ------- ----- ------------
CSEG                                00000078    0000137E =        4990. bytes (REL,CON,CODE)

      Value  Global                              Global Defined In Module
      -----  --------------------------------   ------------------------
C:   00000673  A$characters$1180                  characters
C:   00000675  A$characters$1181                  characters
C:   00000677  A$characters$1182                  characters
C:   00000679  A$characters$1183                  characters
C:   0000067C  A$characters$1184                  characters
C:   0000067E  A$characters$1185                  characters
C:   00000680  A$characters$1186                  characters
C:   00000683  A$characters$1190                  characters
C:   00000683  C$characters.c$88$3_0$50           characters
C:   00000686  A$characters$1191                  characters
C:   00000689  A$characters$1194                  characters
C:   00000689  C$characters.c$90$4_0$52           characters
C:   0000068C  A$characters$1195                  characters
C:   0000068D  A$characters$1196                  characters
C:   0000068E  A$characters$1197                  characters
C:   0000068F  A$characters$1198                  characters
C:   00000690  A$characters$1199                  characters
C:   00000691  A$characters$1200                  characters
C:   00000693  A$characters$1201                  characters
C:   00000695  A$characters$1202                  characters
C:   00000697  A$characters$1203                  characters
C:   00000699  A$characters$1204                  characters
C:   0000069C  A$characters$1207                  characters
C:   0000069C  C$characters.c$91$4_0$52           characters
C:   0000069F  A$characters$1208                  characters
C:   000006A0  A$characters$1209                  characters
C:   000006A1  A$characters$1210                  characters
C:   000006A2  A$characters$1211                  characters
C:   000006A3  A$characters$1212                  characters
C:   000006A4  A$characters$1213                  characters
C:   000006A6  A$characters$1214                  characters
C:   000006A8  A$characters$1215                  characters
C:   000006AA  A$characters$1216                  characters
C:   000006AC  A$characters$1217                  characters
C:   000006AE  A$characters$1218                  characters
C:   000006B0  A$characters$1219                  characters
C:   000006B3  A$characters$1220                  characters
C:   000006B5  A$characters$1221                  characters
C:   000006B7  A$characters$1222                  characters
C:   000006B9  A$characters$1225                  characters
C:   000006B9  C$characters.c$92$4_0$52           characters
C:   000006BC  A$characters$1226                  characters
C:   000006BD  A$characters$1227                  characters
C:   000006BE  A$characters$1228                  characters
C:   000006BF  A$characters$1229                  characters
C:   000006C0  A$characters$1232                  characters
C:   000006C0  C$characters.c$93$4_0$52           characters
C:   000006C2  A$characters$1233                  characters
C:   000006C4  A$characters$1234                  characters
C:   000006C6  A$characters$1235                  characters
C:   000006C8  A$characters$1236                  characters
ASxxxx Linker V03.00 + NoICE + sdld,  page 44.
Hexadecimal  [32-Bits]

Area                                    Addr        Size        Decimal Bytes (Attributes)
--------------------------------        ----        ----        ------- ----- ------------
CSEG                                00000078    0000137E =        4990. bytes (REL,CON,CODE)

      Value  Global                              Global Defined In Module
      -----  --------------------------------   ------------------------
C:   000006CB  A$characters$1237                  characters
C:   000006CD  A$characters$1238                  characters
C:   000006CF  A$characters$1239                  characters
C:   000006D2  A$characters$1243                  characters
C:   000006D2  C$characters.c$95$3_0$50           characters
C:   000006D4  A$characters$1244                  characters
C:   000006D6  A$characters$1245                  characters
C:   000006D7  A$characters$1246                  characters
C:   000006D9  A$characters$1247                  characters
C:   000006DA  A$characters$1248                  characters
C:   000006DC  A$characters$1249                  characters
C:   000006DE  A$characters$1250                  characters
C:   000006E1  A$characters$1251                  characters
C:   000006E3  A$characters$1252                  characters
C:   000006E5  A$characters$1253                  characters
C:   000006E8  A$characters$1255                  characters
C:   000006EB  A$characters$1256                  characters
C:   000006EC  A$characters$1257                  characters
C:   000006ED  A$characters$1258                  characters
C:   000006EE  A$characters$1259                  characters
C:   000006EF  A$characters$1260                  characters
C:   000006F0  A$characters$1261                  characters
C:   000006F2  A$characters$1262                  characters
C:   000006F3  A$characters$1263                  characters
C:   000006F4  A$characters$1264                  characters
C:   000006F5  A$characters$1265                  characters
C:   000006F6  A$characters$1266                  characters
C:   000006F7  A$characters$1267                  characters
C:   000006F9  A$characters$1268                  characters
C:   000006FB  A$characters$1269                  characters
C:   000006FC  A$characters$1270                  characters
C:   000006FD  A$characters$1271                  characters
C:   000006FE  A$characters$1272                  characters
C:   000006FF  A$characters$1273                  characters
C:   00000701  A$characters$1274                  characters
C:   00000703  A$characters$1275                  characters
C:   00000706  A$characters$1276                  characters
C:   00000708  A$characters$1277                  characters
C:   0000070A  A$characters$1278                  characters
C:   0000070D  A$characters$1282                  characters
C:   0000070D  C$characters.c$97$4_0$53           characters
C:   0000070F  A$characters$1283                  characters
C:   00000711  A$characters$1284                  characters
C:   00000713  A$characters$1285                  characters
C:   00000715  A$characters$1286                  characters
C:   00000717  A$characters$1287                  characters
C:   00000719  A$characters$1288                  characters
C:   0000071C  A$characters$1289                  characters
C:   0000071E  A$characters$1290                  characters
C:   00000720  A$characters$1291                  characters
C:   00000722  A$characters$1294                  characters
ASxxxx Linker V03.00 + NoICE + sdld,  page 45.
Hexadecimal  [32-Bits]

Area                                    Addr        Size        Decimal Bytes (Attributes)
--------------------------------        ----        ----        ------- ----- ------------
CSEG                                00000078    0000137E =        4990. bytes (REL,CON,CODE)

      Value  Global                              Global Defined In Module
      -----  --------------------------------   ------------------------
C:   00000722  C$characters.c$98$4_0$53           characters
C:   00000725  A$characters$1295                  characters
C:   00000726  A$characters$1296                  characters
C:   00000727  A$characters$1297                  characters
C:   00000728  A$characters$1298                  characters
C:   00000729  A$characters$1299                  characters
C:   0000072A  A$characters$1300                  characters
C:   0000072B  A$characters$1301                  characters
C:   0000072D  A$characters$1302                  characters
C:   00000730  A$characters$1303                  characters
C:   00000731  A$characters$1304                  characters
C:   00000734  A$characters$1305                  characters
C:   00000736  A$characters$1306                  characters
C:   00000737  A$characters$1307                  characters
C:   00000738  A$characters$1309                  characters
C:   00000739  A$characters$1310                  characters
C:   0000073C  A$characters$1311                  characters
C:   0000073D  A$characters$1312                  characters
C:   0000073F  A$characters$1313                  characters
C:   00000741  A$characters$1314                  characters
C:   00000742  A$characters$1315                  characters
C:   00000744  A$characters$1316                  characters
C:   00000746  A$characters$1318                  characters
C:   00000748  A$characters$1319                  characters
C:   0000074A  A$characters$1320                  characters
C:   0000074C  A$characters$1321                  characters
C:   0000074E  A$characters$1322                  characters
C:   00000750  A$characters$1323                  characters
C:   00000751  A$characters$1324                  characters
C:   00000752  A$characters$1325                  characters
C:   00000753  A$characters$1326                  characters
C:   00000754  A$characters$1327                  characters
C:   00000755  A$characters$1328                  characters
C:   00000757  A$characters$1329                  characters
C:   00000759  A$characters$1330                  characters
C:   0000075B  A$characters$1331                  characters
C:   0000075D  A$characters$1332                  characters
C:   00000760  A$characters$1335                  characters
C:   00000760  C$characters.c$99$4_0$53           characters
C:   00000763  A$characters$1336                  characters
C:   00000764  A$characters$1337                  characters
C:   00000766  A$characters$1338                  characters
C:   00000767  A$characters$1339                  characters
C:   00000768  A$characters$1340                  characters
C:   0000076A  A$characters$1341                  characters
C:   0000076C  A$characters$1342                  characters
C:   0000076E  A$characters$1343                  characters
C:   00000770  A$characters$1344                  characters
C:   00000772  A$characters$1345                  characters
C:   00000775  A$characters$1346                  characters
C:   00000777  A$characters$1347                  characters
ASxxxx Linker V03.00 + NoICE + sdld,  page 46.
Hexadecimal  [32-Bits]

Area                                    Addr        Size        Decimal Bytes (Attributes)
--------------------------------        ----        ----        ------- ----- ------------
CSEG                                00000078    0000137E =        4990. bytes (REL,CON,CODE)

      Value  Global                              Global Defined In Module
      -----  --------------------------------   ------------------------
C:   00000779  A$characters$1348                  characters
C:   0000077B  A$characters$1351                  characters
C:   0000077B  C$characters.c$100$4_0$53          characters
C:   0000077E  A$characters$1352                  characters
C:   0000077F  A$characters$1353                  characters
C:   00000780  A$characters$1354                  characters
C:   00000781  A$characters$1355                  characters
C:   00000782  A$characters$1356                  characters
C:   00000783  A$characters$1357                  characters
C:   00000784  A$characters$1358                  characters
C:   00000785  A$characters$1359                  characters
C:   00000787  A$characters$1360                  characters
C:   0000078A  A$characters$1361                  characters
C:   0000078B  A$characters$1362                  characters
C:   0000078E  A$characters$1363                  characters
C:   00000790  A$characters$1364                  characters
C:   00000791  A$characters$1365                  characters
C:   00000792  A$characters$1367                  characters
C:   00000793  A$characters$1368                  characters
C:   00000796  A$characters$1369                  characters
C:   00000797  A$characters$1370                  characters
C:   00000799  A$characters$1371                  characters
C:   0000079B  A$characters$1372                  characters
C:   0000079C  A$characters$1373                  characters
C:   0000079E  A$characters$1374                  characters
C:   000007A0  A$characters$1376                  characters
C:   000007A2  A$characters$1377                  characters
C:   000007A4  A$characters$1378                  characters
C:   000007A6  A$characters$1379                  characters
C:   000007A8  A$characters$1380                  characters
C:   000007AA  A$characters$1381                  characters
C:   000007AB  A$characters$1382                  characters
C:   000007AC  A$characters$1383                  characters
C:   000007AD  A$characters$1384                  characters
C:   000007AE  A$characters$1385                  characters
C:   000007B1  A$characters$1389                  characters
C:   000007B1  C$characters.c$104$4_0$54          characters
C:   000007B3  A$characters$1390                  characters
C:   000007B5  A$characters$1391                  characters
C:   000007B7  A$characters$1392                  characters
C:   000007B9  A$characters$1393                  characters
C:   000007BC  A$characters$1394                  characters
C:   000007BE  A$characters$1395                  characters
C:   000007C0  A$characters$1398                  characters
C:   000007C0  C$characters.c$106$3_0$50          characters
C:   000007C3  A$characters$1404                  characters
C:   000007C3  C$characters.c$109$2_0$46          characters
C:   000007C3  C$characters.c$111$3_0$55          characters
C:   000007C6  A$characters$1405                  characters
C:   000007C9  A$characters$1408                  characters
C:   000007C9  C$characters.c$112$3_0$55          characters
ASxxxx Linker V03.00 + NoICE + sdld,  page 47.
Hexadecimal  [32-Bits]

Area                                    Addr        Size        Decimal Bytes (Attributes)
--------------------------------        ----        ----        ------- ----- ------------
CSEG                                00000078    0000137E =        4990. bytes (REL,CON,CODE)

      Value  Global                              Global Defined In Module
      -----  --------------------------------   ------------------------
C:   000007CC  A$characters$1409                  characters
C:   000007CD  A$characters$1410                  characters
C:   000007CF  A$characters$1411                  characters
C:   000007D0  A$characters$1412                  characters
C:   000007D1  A$characters$1413                  characters
C:   000007D3  A$characters$1414                  characters
C:   000007D5  A$characters$1415                  characters
C:   000007D8  A$characters$1419                  characters
C:   000007D8  C$characters.c$113$4_0$56          characters
C:   000007DA  A$characters$1420                  characters
C:   000007DC  A$characters$1421                  characters
C:   000007DE  A$characters$1422                  characters
C:   000007E0  A$characters$1423                  characters
C:   000007E3  A$characters$1424                  characters
C:   000007E5  A$characters$1425                  characters
C:   000007E7  A$characters$1428                  characters
C:   000007E7  C$characters.c$114$4_0$56          characters
C:   000007EA  A$characters$1429                  characters
C:   000007EB  A$characters$1430                  characters
C:   000007ED  A$characters$1431                  characters
C:   000007EE  A$characters$1432                  characters
C:   000007EF  A$characters$1433                  characters
C:   000007F1  A$characters$1434                  characters
C:   000007F3  A$characters$1435                  characters
C:   000007F5  A$characters$1436                  characters
C:   000007F7  A$characters$1437                  characters
C:   000007F9  A$characters$1438                  characters
C:   000007FC  A$characters$1439                  characters
C:   000007FE  A$characters$1440                  characters
C:   00000800  A$characters$1441                  characters
C:   00000802  A$characters$1444                  characters
C:   00000802  C$characters.c$115$4_0$56          characters
C:   00000805  A$characters$1445                  characters
C:   00000806  A$characters$1446                  characters
C:   00000807  A$characters$1447                  characters
C:   00000808  A$characters$1448                  characters
C:   00000809  A$characters$1449                  characters
C:   0000080A  A$characters$1450                  characters
C:   0000080D  A$characters$1451                  characters
C:   0000080E  A$characters$1452                  characters
C:   0000080F  A$characters$1453                  characters
C:   00000810  A$characters$1454                  characters
C:   00000811  A$characters$1455                  characters
C:   00000812  A$characters$1456                  characters
C:   00000813  A$characters$1457                  characters
C:   00000814  A$characters$1458                  characters
C:   00000815  A$characters$1459                  characters
C:   00000816  A$characters$1460                  characters
C:   00000817  A$characters$1461                  characters
C:   00000818  A$characters$1462                  characters
C:   0000081A  A$characters$1463                  characters
ASxxxx Linker V03.00 + NoICE + sdld,  page 48.
Hexadecimal  [32-Bits]

Area                                    Addr        Size        Decimal Bytes (Attributes)
--------------------------------        ----        ----        ------- ----- ------------
CSEG                                00000078    0000137E =        4990. bytes (REL,CON,CODE)

      Value  Global                              Global Defined In Module
      -----  --------------------------------   ------------------------
C:   0000081C  A$characters$1464                  characters
C:   0000081E  A$characters$1465                  characters
C:   00000820  A$characters$1466                  characters
C:   00000822  A$characters$1467                  characters
C:   00000824  A$characters$1468                  characters
C:   00000827  A$characters$1469                  characters
C:   00000829  A$characters$1470                  characters
C:   0000082B  A$characters$1471                  characters
C:   0000082D  A$characters$1474                  characters
C:   0000082D  C$characters.c$116$4_0$56          characters
C:   00000830  A$characters$1475                  characters
C:   00000831  A$characters$1476                  characters
C:   00000833  A$characters$1477                  characters
C:   00000834  A$characters$1478                  characters
C:   00000835  A$characters$1479                  characters
C:   00000837  A$characters$1480                  characters
C:   00000839  A$characters$1481                  characters
C:   0000083B  A$characters$1482                  characters
C:   0000083D  A$characters$1483                  characters
C:   0000083F  A$characters$1484                  characters
C:   00000842  A$characters$1485                  characters
C:   00000844  A$characters$1486                  characters
C:   00000846  A$characters$1487                  characters
C:   00000848  A$characters$1490                  characters
C:   00000848  C$characters.c$117$4_0$56          characters
C:   0000084B  A$characters$1491                  characters
C:   0000084C  A$characters$1492                  characters
C:   0000084E  A$characters$1493                  characters
C:   0000084F  A$characters$1494                  characters
C:   00000850  A$characters$1495                  characters
C:   00000852  A$characters$1496                  characters
C:   00000854  A$characters$1497                  characters
C:   00000856  A$characters$1498                  characters
C:   00000858  A$characters$1499                  characters
C:   0000085A  A$characters$1500                  characters
C:   0000085D  A$characters$1501                  characters
C:   0000085F  A$characters$1502                  characters
C:   00000861  A$characters$1503                  characters
C:   00000863  A$characters$1506                  characters
C:   00000863  C$characters.c$118$4_0$56          characters
C:   00000866  A$characters$1507                  characters
C:   00000867  A$characters$1508                  characters
C:   00000868  A$characters$1509                  characters
C:   00000869  A$characters$1510                  characters
C:   0000086A  A$characters$1511                  characters
C:   0000086B  A$characters$1512                  characters
C:   0000086E  A$characters$1513                  characters
C:   0000086F  A$characters$1514                  characters
C:   00000870  A$characters$1515                  characters
C:   00000871  A$characters$1516                  characters
C:   00000872  A$characters$1517                  characters
ASxxxx Linker V03.00 + NoICE + sdld,  page 49.
Hexadecimal  [32-Bits]

Area                                    Addr        Size        Decimal Bytes (Attributes)
--------------------------------        ----        ----        ------- ----- ------------
CSEG                                00000078    0000137E =        4990. bytes (REL,CON,CODE)

      Value  Global                              Global Defined In Module
      -----  --------------------------------   ------------------------
C:   00000873  A$characters$1518                  characters
C:   00000874  A$characters$1519                  characters
C:   00000875  A$characters$1520                  characters
C:   00000876  A$characters$1521                  characters
C:   00000877  A$characters$1522                  characters
C:   00000878  A$characters$1523                  characters
C:   00000879  A$characters$1524                  characters
C:   0000087A  A$characters$1525                  characters
C:   0000087C  A$characters$1526                  characters
C:   0000087E  A$characters$1527                  characters
C:   00000880  A$characters$1528                  characters
C:   00000882  A$characters$1529                  characters
C:   00000884  A$characters$1530                  characters
C:   00000886  A$characters$1531                  characters
C:   00000889  A$characters$1532                  characters
C:   0000088B  A$characters$1533                  characters
C:   0000088D  A$characters$1534                  characters
C:   0000088F  A$characters$1535                  characters
C:   00000891  A$characters$1539                  characters
C:   00000891  C$characters.c$122$4_0$57          characters
C:   00000893  A$characters$1540                  characters
C:   00000895  A$characters$1541                  characters
C:   00000897  A$characters$1542                  characters
C:   00000899  A$characters$1543                  characters
C:   0000089C  A$characters$1544                  characters
C:   0000089E  A$characters$1545                  characters
C:   000008A0  A$characters$1549                  characters
C:   000008A0  C$characters.c$125$3_0$55          characters
C:   000008A3  A$characters$1550                  characters
C:   000008A4  A$characters$1551                  characters
C:   000008A6  A$characters$1552                  characters
C:   000008A7  A$characters$1553                  characters
C:   000008A8  A$characters$1554                  characters
C:   000008AA  A$characters$1555                  characters
C:   000008AC  A$characters$1558                  characters
C:   000008AC  C$characters.c$127$4_0$58          characters
C:   000008AE  A$characters$1559                  characters
C:   000008B0  A$characters$1560                  characters
C:   000008B2  A$characters$1561                  characters
C:   000008B4  A$characters$1562                  characters
C:   000008B7  A$characters$1563                  characters
C:   000008B9  A$characters$1564                  characters
C:   000008BB  A$characters$1567                  characters
C:   000008BB  C$characters.c$128$4_0$58          characters
C:   000008BE  A$characters$1568                  characters
C:   000008BF  A$characters$1569                  characters
C:   000008C1  A$characters$1570                  characters
C:   000008C2  A$characters$1571                  characters
C:   000008C3  A$characters$1572                  characters
C:   000008C5  A$characters$1573                  characters
C:   000008C7  A$characters$1574                  characters
ASxxxx Linker V03.00 + NoICE + sdld,  page 50.
Hexadecimal  [32-Bits]

Area                                    Addr        Size        Decimal Bytes (Attributes)
--------------------------------        ----        ----        ------- ----- ------------
CSEG                                00000078    0000137E =        4990. bytes (REL,CON,CODE)

      Value  Global                              Global Defined In Module
      -----  --------------------------------   ------------------------
C:   000008C9  A$characters$1575                  characters
C:   000008CB  A$characters$1576                  characters
C:   000008CD  A$characters$1577                  characters
C:   000008D0  A$characters$1578                  characters
C:   000008D2  A$characters$1579                  characters
C:   000008D4  A$characters$1580                  characters
C:   000008D6  A$characters$1583                  characters
C:   000008D6  C$characters.c$129$4_0$58          characters
C:   000008D9  A$characters$1584                  characters
C:   000008DA  A$characters$1585                  characters
C:   000008DB  A$characters$1586                  characters
C:   000008DC  A$characters$1587                  characters
C:   000008DD  A$characters$1588                  characters
C:   000008DE  A$characters$1589                  characters
C:   000008E1  A$characters$1590                  characters
C:   000008E2  A$characters$1591                  characters
C:   000008E3  A$characters$1592                  characters
C:   000008E4  A$characters$1593                  characters
C:   000008E5  A$characters$1594                  characters
C:   000008E6  A$characters$1595                  characters
C:   000008E7  A$characters$1596                  characters
C:   000008E8  A$characters$1597                  characters
C:   000008E9  A$characters$1598                  characters
C:   000008EA  A$characters$1599                  characters
C:   000008EB  A$characters$1600                  characters
C:   000008EC  A$characters$1601                  characters
C:   000008EE  A$characters$1602                  characters
C:   000008F0  A$characters$1603                  characters
C:   000008F2  A$characters$1604                  characters
C:   000008F4  A$characters$1605                  characters
C:   000008F6  A$characters$1606                  characters
C:   000008F8  A$characters$1607                  characters
C:   000008FB  A$characters$1608                  characters
C:   000008FD  A$characters$1609                  characters
C:   000008FF  A$characters$1610                  characters
C:   00000901  A$characters$1613                  characters
C:   00000901  C$characters.c$130$4_0$58          characters
C:   00000904  A$characters$1614                  characters
C:   00000905  A$characters$1615                  characters
C:   00000907  A$characters$1616                  characters
C:   00000908  A$characters$1617                  characters
C:   00000909  A$characters$1618                  characters
C:   0000090B  A$characters$1619                  characters
C:   0000090D  A$characters$1620                  characters
C:   0000090F  A$characters$1621                  characters
C:   00000911  A$characters$1622                  characters
C:   00000913  A$characters$1623                  characters
C:   00000916  A$characters$1624                  characters
C:   00000918  A$characters$1625                  characters
C:   0000091A  A$characters$1626                  characters
C:   0000091C  A$characters$1627                  characters
ASxxxx Linker V03.00 + NoICE + sdld,  page 51.
Hexadecimal  [32-Bits]

Area                                    Addr        Size        Decimal Bytes (Attributes)
--------------------------------        ----        ----        ------- ----- ------------
CSEG                                00000078    0000137E =        4990. bytes (REL,CON,CODE)

      Value  Global                              Global Defined In Module
      -----  --------------------------------   ------------------------
C:   0000091E  A$characters$1631                  characters
C:   0000091E  C$characters.c$135$4_0$59          characters
C:   00000920  A$characters$1632                  characters
C:   00000922  A$characters$1633                  characters
C:   00000924  A$characters$1634                  characters
C:   00000926  A$characters$1635                  characters
C:   00000929  A$characters$1636                  characters
C:   0000092B  A$characters$1637                  characters
C:   0000092D  A$characters$1641                  characters
C:   0000092D  C$characters.c$138$1_0$45          characters
C:   0000092F  A$characters$1642                  characters
C:   00000931  A$characters$1644                  characters
C:   00000934  A$characters$1645                  characters
C:   00000935  A$characters$1646                  characters
C:   00000936  A$characters$1647                  characters
C:   00000937  A$characters$1648                  characters
C:   00000938  A$characters$1649                  characters
C:   00000939  A$characters$1650                  characters
C:   0000093B  A$characters$1651                  characters
C:   0000093C  A$characters$1652                  characters
C:   0000093D  A$characters$1653                  characters
C:   0000093E  A$characters$1654                  characters
C:   0000093F  A$characters$1655                  characters
C:   00000940  A$characters$1656                  characters
C:   00000941  A$characters$1657                  characters
C:   00000942  A$characters$1658                  characters
C:   00000943  A$characters$1659                  characters
C:   00000944  A$characters$1660                  characters
C:   00000946  A$characters$1661                  characters
C:   00000948  A$characters$1662                  characters
C:   0000094B  A$characters$1663                  characters
C:   0000094D  A$characters$1664                  characters
C:   0000094F  A$characters$1665                  characters
C:   00000952  A$characters$1669                  characters
C:   00000952  C$characters.c$140$5_0$61          characters
C:   00000954  A$characters$1670                  characters
C:   00000955  A$characters$1671                  characters
C:   00000957  A$characters$1672                  characters
C:   00000958  A$characters$1673                  characters
C:   0000095A  A$characters$1674                  characters
C:   0000095D  A$characters$1675                  characters
C:   0000095E  A$characters$1676                  characters
C:   00000961  A$characters$1677                  characters
C:   00000963  A$characters$1678                  characters
C:   00000964  A$characters$1679                  characters
C:   00000965  A$characters$1681                  characters
C:   00000966  A$characters$1682                  characters
C:   00000969  A$characters$1683                  characters
C:   0000096A  A$characters$1684                  characters
C:   0000096C  A$characters$1685                  characters
C:   0000096E  A$characters$1686                  characters
ASxxxx Linker V03.00 + NoICE + sdld,  page 52.
Hexadecimal  [32-Bits]

Area                                    Addr        Size        Decimal Bytes (Attributes)
--------------------------------        ----        ----        ------- ----- ------------
CSEG                                00000078    0000137E =        4990. bytes (REL,CON,CODE)

      Value  Global                              Global Defined In Module
      -----  --------------------------------   ------------------------
C:   0000096F  A$characters$1687                  characters
C:   00000971  A$characters$1688                  characters
C:   00000973  A$characters$1690                  characters
C:   00000975  A$characters$1691                  characters
C:   00000977  A$characters$1692                  characters
C:   00000979  A$characters$1693                  characters
C:   0000097B  A$characters$1694                  characters
C:   0000097D  A$characters$1695                  characters
C:   0000097E  A$characters$1696                  characters
C:   0000097F  A$characters$1697                  characters
C:   00000980  A$characters$1698                  characters
C:   00000981  A$characters$1699                  characters
C:   00000982  A$characters$1700                  characters
C:   00000983  A$characters$1701                  characters
C:   00000985  A$characters$1702                  characters
C:   00000988  A$characters$1706                  characters
C:   00000988  C$characters.c$142$6_0$62          characters
C:   0000098A  A$characters$1707                  characters
C:   0000098C  A$characters$1708                  characters
C:   0000098E  A$characters$1709                  characters
C:   00000990  A$characters$1710                  characters
C:   00000992  A$characters$1711                  characters
C:   00000994  A$characters$1712                  characters
C:   00000996  A$characters$1713                  characters
C:   00000998  A$characters$1714                  characters
C:   0000099A  A$characters$1715                  characters
C:   0000099D  A$characters$1716                  characters
C:   0000099F  A$characters$1717                  characters
C:   000009A1  A$characters$1718                  characters
C:   000009A3  A$characters$1719                  characters
C:   000009A5  A$characters$1720                  characters
C:   000009A7  A$characters$1721                  characters
C:   000009A9  A$characters$1724                  characters
C:   000009A9  C$characters.c$143$6_0$62          characters
C:   000009AA  A$characters$1725                  characters
C:   000009AB  A$characters$1726                  characters
C:   000009AD  A$characters$1727                  characters
C:   000009B0  A$characters$1728                  characters
C:   000009B1  A$characters$1729                  characters
C:   000009B4  A$characters$1730                  characters
C:   000009B6  A$characters$1731                  characters
C:   000009B7  A$characters$1732                  characters
C:   000009B8  A$characters$1734                  characters
C:   000009B9  A$characters$1735                  characters
C:   000009BC  A$characters$1736                  characters
C:   000009BD  A$characters$1737                  characters
C:   000009BF  A$characters$1738                  characters
C:   000009C1  A$characters$1739                  characters
C:   000009C2  A$characters$1740                  characters
C:   000009C4  A$characters$1741                  characters
C:   000009C6  A$characters$1743                  characters
ASxxxx Linker V03.00 + NoICE + sdld,  page 53.
Hexadecimal  [32-Bits]

Area                                    Addr        Size        Decimal Bytes (Attributes)
--------------------------------        ----        ----        ------- ----- ------------
CSEG                                00000078    0000137E =        4990. bytes (REL,CON,CODE)

      Value  Global                              Global Defined In Module
      -----  --------------------------------   ------------------------
C:   000009C8  A$characters$1744                  characters
C:   000009C9  A$characters$1745                  characters
C:   000009CB  A$characters$1746                  characters
C:   000009CD  A$characters$1747                  characters
C:   000009CE  A$characters$1748                  characters
C:   000009D0  A$characters$1749                  characters
C:   000009D2  A$characters$1750                  characters
C:   000009D3  A$characters$1751                  characters
C:   000009D4  A$characters$1752                  characters
C:   000009D5  A$characters$1753                  characters
C:   000009D6  A$characters$1754                  characters
C:   000009D7  A$characters$1755                  characters
C:   000009D9  A$characters$1756                  characters
C:   000009DB  A$characters$1757                  characters
C:   000009DD  A$characters$1758                  characters
C:   000009DF  A$characters$1759                  characters
C:   000009E1  A$characters$1760                  characters
C:   000009E3  A$characters$1761                  characters
C:   000009E5  A$characters$1762                  characters
C:   000009E7  A$characters$1763                  characters
C:   000009E9  A$characters$1764                  characters
C:   000009EB  A$characters$1765                  characters
C:   000009EE  A$characters$1766                  characters
C:   000009F0  A$characters$1767                  characters
C:   000009F2  A$characters$1768                  characters
C:   000009F4  A$characters$1769                  characters
C:   000009F6  A$characters$1770                  characters
C:   000009F8  A$characters$1771                  characters
C:   000009FA  A$characters$1772                  characters
C:   000009FC  A$characters$1775                  characters
C:   000009FC  C$characters.c$144$6_0$62          characters
C:   000009FE  A$characters$1776                  characters
C:   00000A00  A$characters$1777                  characters
C:   00000A01  A$characters$1778                  characters
C:   00000A02  A$characters$1779                  characters
C:   00000A03  A$characters$1780                  characters
C:   00000A04  A$characters$1781                  characters
C:   00000A05  A$characters$1782                  characters
C:   00000A06  A$characters$1783                  characters
C:   00000A07  A$characters$1784                  characters
C:   00000A08  A$characters$1785                  characters
C:   00000A09  A$characters$1786                  characters
C:   00000A0A  A$characters$1787                  characters
C:   00000A0B  A$characters$1788                  characters
C:   00000A0C  A$characters$1789                  characters
C:   00000A0E  A$characters$1790                  characters
C:   00000A0F  A$characters$1791                  characters
C:   00000A10  A$characters$1792                  characters
C:   00000A12  A$characters$1793                  characters
C:   00000A13  A$characters$1794                  characters
C:   00000A15  A$characters$1795                  characters
ASxxxx Linker V03.00 + NoICE + sdld,  page 54.
Hexadecimal  [32-Bits]

Area                                    Addr        Size        Decimal Bytes (Attributes)
--------------------------------        ----        ----        ------- ----- ------------
CSEG                                00000078    0000137E =        4990. bytes (REL,CON,CODE)

      Value  Global                              Global Defined In Module
      -----  --------------------------------   ------------------------
C:   00000A17  A$characters$1796                  characters
C:   00000A18  A$characters$1797                  characters
C:   00000A19  A$characters$1798                  characters
C:   00000A1A  A$characters$1799                  characters
C:   00000A1B  A$characters$1800                  characters
C:   00000A1C  A$characters$1801                  characters
C:   00000A1D  A$characters$1802                  characters
C:   00000A1E  A$characters$1803                  characters
C:   00000A1F  A$characters$1804                  characters
C:   00000A20  A$characters$1805                  characters
C:   00000A21  A$characters$1806                  characters
C:   00000A22  A$characters$1807                  characters
C:   00000A24  A$characters$1808                  characters
C:   00000A26  A$characters$1809                  characters
C:   00000A28  A$characters$1810                  characters
C:   00000A2A  A$characters$1811                  characters
C:   00000A2C  A$characters$1812                  characters
C:   00000A2E  A$characters$1813                  characters
C:   00000A30  A$characters$1814                  characters
C:   00000A32  A$characters$1815                  characters
C:   00000A34  A$characters$1816                  characters
C:   00000A36  A$characters$1817                  characters
C:   00000A39  A$characters$1818                  characters
C:   00000A3B  A$characters$1819                  characters
C:   00000A3D  A$characters$1820                  characters
C:   00000A3F  A$characters$1821                  characters
C:   00000A41  A$characters$1822                  characters
C:   00000A43  A$characters$1825                  characters
C:   00000A43  C$characters.c$145$6_0$62          characters
C:   00000A45  A$characters$1826                  characters
C:   00000A47  A$characters$1827                  characters
C:   00000A48  A$characters$1828                  characters
C:   00000A49  A$characters$1829                  characters
C:   00000A4A  A$characters$1830                  characters
C:   00000A4B  A$characters$1831                  characters
C:   00000A4C  A$characters$1832                  characters
C:   00000A4E  A$characters$1833                  characters
C:   00000A50  A$characters$1834                  characters
C:   00000A52  A$characters$1835                  characters
C:   00000A54  A$characters$1836                  characters
C:   00000A56  A$characters$1837                  characters
C:   00000A58  A$characters$1838                  characters
C:   00000A5B  A$characters$1839                  characters
C:   00000A5D  A$characters$1840                  characters
C:   00000A5F  A$characters$1841                  characters
C:   00000A61  A$characters$1842                  characters
C:   00000A63  A$characters$1843                  characters
C:   00000A65  A$characters$1844                  characters
C:   00000A67  A$characters$1848                  characters
C:   00000A67  C$characters.c$150$6_0$63          characters
C:   00000A69  A$characters$1849                  characters
ASxxxx Linker V03.00 + NoICE + sdld,  page 55.
Hexadecimal  [32-Bits]

Area                                    Addr        Size        Decimal Bytes (Attributes)
--------------------------------        ----        ----        ------- ----- ------------
CSEG                                00000078    0000137E =        4990. bytes (REL,CON,CODE)

      Value  Global                              Global Defined In Module
      -----  --------------------------------   ------------------------
C:   00000A6B  A$characters$1850                  characters
C:   00000A6D  A$characters$1851                  characters
C:   00000A6F  A$characters$1852                  characters
C:   00000A71  A$characters$1853                  characters
C:   00000A73  A$characters$1854                  characters
C:   00000A76  A$characters$1855                  characters
C:   00000A78  A$characters$1856                  characters
C:   00000A7A  A$characters$1857                  characters
C:   00000A7C  A$characters$1858                  characters
C:   00000A7E  A$characters$1862                  characters
C:   00000A7E  C$characters.c$138$4_0$60          characters
C:   00000A7F  A$characters$1863                  characters
C:   00000A82  A$characters$1864                  characters
C:   00000A83  A$characters$1866                  characters
C:   00000A86  A$characters$1870                  characters
C:   00000A86  C$characters.c$154$3_0$55          characters
C:   00000A89  A$characters$1871                  characters
C:   00000A8A  A$characters$1872                  characters
C:   00000A8C  A$characters$1873                  characters
C:   00000A8D  A$characters$1874                  characters
C:   00000A8E  A$characters$1875                  characters
C:   00000A90  A$characters$1876                  characters
C:   00000A92  A$characters$1877                  characters
C:   00000A94  A$characters$1878                  characters
C:   00000A96  A$characters$1879                  characters
C:   00000A98  A$characters$1880                  characters
C:   00000A9B  A$characters$1881                  characters
C:   00000A9D  A$characters$1882                  characters
C:   00000A9F  A$characters$1883                  characters
C:   00000AA1  A$characters$1886                  characters
C:   00000AA1  C$characters.c$155$3_0$55          characters
C:   00000AA4  A$characters$1892                  characters
C:   00000AA4  C$characters.c$158$2_0$46          characters
C:   00000AA4  C$characters.c$160$3_0$64          characters
C:   00000AA7  A$characters$1893                  characters
C:   00000AAA  A$characters$1896                  characters
C:   00000AAA  C$characters.c$161$3_0$64          characters
C:   00000AAC  A$characters$1897                  characters
C:   00000AAE  A$characters$1898                  characters
C:   00000AB0  A$characters$1899                  characters
C:   00000AB2  A$characters$1900                  characters
C:   00000AB5  A$characters$1901                  characters
C:   00000AB7  A$characters$1902                  characters
C:   00000AB9  A$characters$1905                  characters
C:   00000ABC  A$characters$1906                  characters
C:   00000ABD  A$characters$1907                  characters
C:   00000ABE  A$characters$1908                  characters
C:   00000ABF  A$characters$1909                  characters
C:   00000AC0  A$characters$1911                  characters
C:   00000AC3  A$characters$1912                  characters
C:   00000AC4  A$characters$1913                  characters
ASxxxx Linker V03.00 + NoICE + sdld,  page 56.
Hexadecimal  [32-Bits]

Area                                    Addr        Size        Decimal Bytes (Attributes)
--------------------------------        ----        ----        ------- ----- ------------
CSEG                                00000078    0000137E =        4990. bytes (REL,CON,CODE)

      Value  Global                              Global Defined In Module
      -----  --------------------------------   ------------------------
C:   00000AC5  A$characters$1914                  characters
C:   00000AC6  A$characters$1915                  characters
C:   00000AC7  A$characters$1916                  characters
C:   00000AC8  A$characters$1917                  characters
C:   00000ACB  A$characters$1918                  characters
C:   00000ACC  A$characters$1919                  characters
C:   00000ACD  A$characters$1920                  characters
C:   00000ACE  A$characters$1921                  characters
C:   00000ACF  A$characters$1922                  characters
C:   00000AD0  A$characters$1923                  characters
C:   00000AD1  A$characters$1924                  characters
C:   00000AD2  A$characters$1925                  characters
C:   00000AD3  A$characters$1926                  characters
C:   00000AD4  A$characters$1927                  characters
C:   00000AD5  A$characters$1928                  characters
C:   00000AD7  A$characters$1929                  characters
C:   00000ADA  A$characters$1933                  characters
C:   00000ADA  C$characters.c$165$5_0$66          characters
C:   00000ADB  A$characters$1934                  characters
C:   00000ADC  A$characters$1935                  characters
C:   00000ADE  A$characters$1938                  characters
C:   00000ADE  C$characters.c$167$6_0$67          characters
C:   00000AE1  A$characters$1939                  characters
C:   00000AE2  A$characters$1940                  characters
C:   00000AE3  A$characters$1941                  characters
C:   00000AE4  A$characters$1942                  characters
C:   00000AE5  A$characters$1943                  characters
C:   00000AE6  A$characters$1944                  characters
C:   00000AE7  A$characters$1945                  characters
C:   00000AE8  A$characters$1946                  characters
C:   00000AE9  A$characters$1947                  characters
C:   00000AEA  A$characters$1948                  characters
C:   00000AEB  A$characters$1949                  characters
C:   00000AEC  A$characters$1950                  characters
C:   00000AEE  A$characters$1951                  characters
C:   00000AF0  A$characters$1952                  characters
C:   00000AF1  A$characters$1953                  characters
C:   00000AF2  A$characters$1954                  characters
C:   00000AF4  A$characters$1955                  characters
C:   00000AF6  A$characters$1956                  characters
C:   00000AF8  A$characters$1957                  characters
C:   00000AFA  A$characters$1958                  characters
C:   00000AFC  A$characters$1959                  characters
C:   00000AFE  A$characters$1960                  characters
C:   00000B00  A$characters$1961                  characters
C:   00000B02  A$characters$1962                  characters
C:   00000B04  A$characters$1963                  characters
C:   00000B07  A$characters$1964                  characters
C:   00000B09  A$characters$1965                  characters
C:   00000B0B  A$characters$1966                  characters
C:   00000B0D  A$characters$1967                  characters
ASxxxx Linker V03.00 + NoICE + sdld,  page 57.
Hexadecimal  [32-Bits]

Area                                    Addr        Size        Decimal Bytes (Attributes)
--------------------------------        ----        ----        ------- ----- ------------
CSEG                                00000078    0000137E =        4990. bytes (REL,CON,CODE)

      Value  Global                              Global Defined In Module
      -----  --------------------------------   ------------------------
C:   00000B0F  A$characters$1971                  characters
C:   00000B0F  C$characters.c$169$5_0$66          characters
C:   00000B11  A$characters$1972                  characters
C:   00000B12  A$characters$1973                  characters
C:   00000B13  A$characters$1974                  characters
C:   00000B15  A$characters$1975                  characters
C:   00000B16  A$characters$1976                  characters
C:   00000B18  A$characters$1979                  characters
C:   00000B18  C$characters.c$171$6_0$68          characters
C:   00000B1B  A$characters$1980                  characters
C:   00000B1C  A$characters$1981                  characters
C:   00000B1D  A$characters$1982                  characters
C:   00000B1E  A$characters$1983                  characters
C:   00000B1F  A$characters$1984                  characters
C:   00000B20  A$characters$1985                  characters
C:   00000B21  A$characters$1986                  characters
C:   00000B22  A$characters$1987                  characters
C:   00000B24  A$characters$1988                  characters
C:   00000B25  A$characters$1989                  characters
C:   00000B26  A$characters$1990                  characters
C:   00000B28  A$characters$1991                  characters
C:   00000B29  A$characters$1992                  characters
C:   00000B2A  A$characters$1993                  characters
C:   00000B2C  A$characters$1994                  characters
C:   00000B2E  A$characters$1995                  characters
C:   00000B30  A$characters$1996                  characters
C:   00000B32  A$characters$1997                  characters
C:   00000B34  A$characters$1998                  characters
C:   00000B36  A$characters$1999                  characters
C:   00000B38  A$characters$2000                  characters
C:   00000B3B  A$characters$2001                  characters
C:   00000B3D  A$characters$2002                  characters
C:   00000B3F  A$characters$2003                  characters
C:   00000B41  A$characters$2004                  characters
C:   00000B43  A$characters$2008                  characters
C:   00000B43  C$characters.c$173$5_0$66          characters
C:   00000B44  A$characters$2009                  characters
C:   00000B45  A$characters$2010                  characters
C:   00000B47  A$characters$2013                  characters
C:   00000B47  C$characters.c$175$6_0$69          characters
C:   00000B4A  A$characters$2014                  characters
C:   00000B4B  A$characters$2015                  characters
C:   00000B4C  A$characters$2016                  characters
C:   00000B4D  A$characters$2017                  characters
C:   00000B4E  A$characters$2018                  characters
C:   00000B4F  A$characters$2019                  characters
C:   00000B50  A$characters$2020                  characters
C:   00000B51  A$characters$2021                  characters
C:   00000B52  A$characters$2022                  characters
C:   00000B53  A$characters$2023                  characters
C:   00000B54  A$characters$2024                  characters
ASxxxx Linker V03.00 + NoICE + sdld,  page 58.
Hexadecimal  [32-Bits]

Area                                    Addr        Size        Decimal Bytes (Attributes)
--------------------------------        ----        ----        ------- ----- ------------
CSEG                                00000078    0000137E =        4990. bytes (REL,CON,CODE)

      Value  Global                              Global Defined In Module
      -----  --------------------------------   ------------------------
C:   00000B55  A$characters$2025                  characters
C:   00000B57  A$characters$2026                  characters
C:   00000B59  A$characters$2027                  characters
C:   00000B5A  A$characters$2028                  characters
C:   00000B5B  A$characters$2029                  characters
C:   00000B5D  A$characters$2030                  characters
C:   00000B5F  A$characters$2031                  characters
C:   00000B61  A$characters$2032                  characters
C:   00000B63  A$characters$2033                  characters
C:   00000B65  A$characters$2034                  characters
C:   00000B67  A$characters$2035                  characters
C:   00000B69  A$characters$2036                  characters
C:   00000B6B  A$characters$2037                  characters
C:   00000B6D  A$characters$2038                  characters
C:   00000B70  A$characters$2039                  characters
C:   00000B72  A$characters$2040                  characters
C:   00000B74  A$characters$2041                  characters
C:   00000B76  A$characters$2045                  characters
C:   00000B76  C$characters.c$163$4_0$65          characters
C:   00000B79  A$characters$2046                  characters
C:   00000B7A  A$characters$2047                  characters
C:   00000B7C  A$characters$2048                  characters
C:   00000B7D  A$characters$2049                  characters
C:   00000B7E  A$characters$2050                  characters
C:   00000B7F  A$characters$2051                  characters
C:   00000B81  A$characters$2052                  characters
C:   00000B82  A$characters$2053                  characters
C:   00000B85  A$characters$2059                  characters
C:   00000B85  C$characters.c$182$2_0$46          characters
C:   00000B85  C$characters.c$184$3_0$70          characters
C:   00000B88  A$characters$2060                  characters
C:   00000B8B  A$characters$2063                  characters
C:   00000B8B  C$characters.c$185$3_0$70          characters
C:   00000B8D  A$characters$2064                  characters
C:   00000B8F  A$characters$2065                  characters
C:   00000B91  A$characters$2066                  characters
C:   00000B93  A$characters$2067                  characters
C:   00000B96  A$characters$2068                  characters
C:   00000B98  A$characters$2069                  characters
C:   00000B9A  A$characters$2072                  characters
C:   00000B9A  C$characters.c$186$3_0$70          characters
C:   00000B9D  A$characters$2073                  characters
C:   00000B9E  A$characters$2074                  characters
C:   00000B9F  A$characters$2075                  characters
C:   00000BA0  A$characters$2076                  characters
C:   00000BA1  A$characters$2077                  characters
C:   00000BA2  A$characters$2078                  characters
C:   00000BA4  A$characters$2079                  characters
C:   00000BA6  A$characters$2080                  characters
C:   00000BA8  A$characters$2081                  characters
C:   00000BAA  A$characters$2082                  characters
ASxxxx Linker V03.00 + NoICE + sdld,  page 59.
Hexadecimal  [32-Bits]

Area                                    Addr        Size        Decimal Bytes (Attributes)
--------------------------------        ----        ----        ------- ----- ------------
CSEG                                00000078    0000137E =        4990. bytes (REL,CON,CODE)

      Value  Global                              Global Defined In Module
      -----  --------------------------------   ------------------------
C:   00000BAD  A$characters$2085                  characters
C:   00000BAD  C$characters.c$187$3_0$70          characters
C:   00000BB0  A$characters$2086                  characters
C:   00000BB1  A$characters$2087                  characters
C:   00000BB2  A$characters$2088                  characters
C:   00000BB3  A$characters$2089                  characters
C:   00000BB4  A$characters$2092                  characters
C:   00000BB4  C$characters.c$188$3_0$70          characters
C:   00000BB7  A$characters$2093                  characters
C:   00000BB8  A$characters$2094                  characters
C:   00000BB9  A$characters$2095                  characters
C:   00000BBA  A$characters$2098                  characters
C:   00000BBA  C$characters.c$189$3_0$70          characters
C:   00000BBC  A$characters$2099                  characters
C:   00000BBE  A$characters$2100                  characters
C:   00000BC0  A$characters$2101                  characters
C:   00000BC2  A$characters$2102                  characters
C:   00000BC5  A$characters$2103                  characters
C:   00000BC7  A$characters$2104                  characters
C:   00000BC9  A$characters$2107                  characters
C:   00000BC9  C$characters.c$191$3_0$70          characters
C:   00000BCB  A$characters$2108                  characters
C:   00000BCD  A$characters$2109                  characters
C:   00000BCF  A$characters$2110                  characters
C:   00000BD1  A$characters$2111                  characters
C:   00000BD4  A$characters$2112                  characters
C:   00000BD6  A$characters$2113                  characters
C:   00000BD8  A$characters$2116                  characters
C:   00000BD8  C$characters.c$192$3_0$70          characters
C:   00000BDB  A$characters$2117                  characters
C:   00000BDC  A$characters$2118                  characters
C:   00000BDD  A$characters$2119                  characters
C:   00000BDE  A$characters$2120                  characters
C:   00000BDF  A$characters$2121                  characters
C:   00000BE0  A$characters$2122                  characters
C:   00000BE2  A$characters$2123                  characters
C:   00000BE4  A$characters$2124                  characters
C:   00000BE6  A$characters$2125                  characters
C:   00000BE8  A$characters$2126                  characters
C:   00000BEB  A$characters$2129                  characters
C:   00000BEB  C$characters.c$193$3_0$70          characters
C:   00000BEE  A$characters$2130                  characters
C:   00000BEF  A$characters$2131                  characters
C:   00000BF0  A$characters$2132                  characters
C:   00000BF1  A$characters$2133                  characters
C:   00000BF2  A$characters$2136                  characters
C:   00000BF2  C$characters.c$194$3_0$70          characters
C:   00000BF4  A$characters$2137                  characters
C:   00000BF6  A$characters$2138                  characters
C:   00000BF8  A$characters$2139                  characters
C:   00000BFA  A$characters$2140                  characters
ASxxxx Linker V03.00 + NoICE + sdld,  page 60.
Hexadecimal  [32-Bits]

Area                                    Addr        Size        Decimal Bytes (Attributes)
--------------------------------        ----        ----        ------- ----- ------------
CSEG                                00000078    0000137E =        4990. bytes (REL,CON,CODE)

      Value  Global                              Global Defined In Module
      -----  --------------------------------   ------------------------
C:   00000BFD  A$characters$2141                  characters
C:   00000BFF  A$characters$2142                  characters
C:   00000C01  A$characters$2145                  characters
C:   00000C04  A$characters$2146                  characters
C:   00000C06  A$characters$2147                  characters
C:   00000C07  A$characters$2148                  characters
C:   00000C08  A$characters$2149                  characters
C:   00000C09  A$characters$2150                  characters
C:   00000C0A  A$characters$2152                  characters
C:   00000C0D  A$characters$2153                  characters
C:   00000C0E  A$characters$2154                  characters
C:   00000C0F  A$characters$2155                  characters
C:   00000C10  A$characters$2156                  characters
C:   00000C11  A$characters$2157                  characters
C:   00000C12  A$characters$2158                  characters
C:   00000C14  A$characters$2159                  characters
C:   00000C15  A$characters$2160                  characters
C:   00000C16  A$characters$2161                  characters
C:   00000C17  A$characters$2162                  characters
C:   00000C18  A$characters$2163                  characters
C:   00000C19  A$characters$2164                  characters
C:   00000C1C  A$characters$2165                  characters
C:   00000C1D  A$characters$2166                  characters
C:   00000C1E  A$characters$2167                  characters
C:   00000C1F  A$characters$2168                  characters
C:   00000C20  A$characters$2169                  characters
C:   00000C21  A$characters$2170                  characters
C:   00000C22  A$characters$2171                  characters
C:   00000C23  A$characters$2172                  characters
C:   00000C24  A$characters$2173                  characters
C:   00000C25  A$characters$2174                  characters
C:   00000C26  A$characters$2175                  characters
C:   00000C28  A$characters$2176                  characters
C:   00000C2B  A$characters$2180                  characters
C:   00000C2B  C$characters.c$198$5_0$72          characters
C:   00000C2D  A$characters$2181                  characters
C:   00000C2F  A$characters$2182                  characters
C:   00000C31  A$characters$2183                  characters
C:   00000C33  A$characters$2184                  characters
C:   00000C35  A$characters$2185                  characters
C:   00000C37  A$characters$2186                  characters
C:   00000C3A  A$characters$2187                  characters
C:   00000C3C  A$characters$2188                  characters
C:   00000C3E  A$characters$2189                  characters
C:   00000C40  A$characters$2192                  characters
C:   00000C40  C$characters.c$199$5_0$72          characters
C:   00000C43  A$characters$2193                  characters
C:   00000C44  A$characters$2194                  characters
C:   00000C45  A$characters$2195                  characters
C:   00000C46  A$characters$2196                  characters
C:   00000C47  A$characters$2197                  characters
ASxxxx Linker V03.00 + NoICE + sdld,  page 61.
Hexadecimal  [32-Bits]

Area                                    Addr        Size        Decimal Bytes (Attributes)
--------------------------------        ----        ----        ------- ----- ------------
CSEG                                00000078    0000137E =        4990. bytes (REL,CON,CODE)

      Value  Global                              Global Defined In Module
      -----  --------------------------------   ------------------------
C:   00000C48  A$characters$2198                  characters
C:   00000C49  A$characters$2199                  characters
C:   00000C4A  A$characters$2200                  characters
C:   00000C4B  A$characters$2201                  characters
C:   00000C4C  A$characters$2202                  characters
C:   00000C4D  A$characters$2203                  characters
C:   00000C4E  A$characters$2204                  characters
C:   00000C4F  A$characters$2205                  characters
C:   00000C51  A$characters$2206                  characters
C:   00000C53  A$characters$2207                  characters
C:   00000C54  A$characters$2208                  characters
C:   00000C56  A$characters$2209                  characters
C:   00000C58  A$characters$2210                  characters
C:   00000C59  A$characters$2211                  characters
C:   00000C5A  A$characters$2212                  characters
C:   00000C5B  A$characters$2213                  characters
C:   00000C5C  A$characters$2214                  characters
C:   00000C5D  A$characters$2215                  characters
C:   00000C5F  A$characters$2216                  characters
C:   00000C61  A$characters$2217                  characters
C:   00000C63  A$characters$2218                  characters
C:   00000C65  A$characters$2219                  characters
C:   00000C68  A$characters$2222                  characters
C:   00000C68  C$characters.c$200$5_0$72          characters
C:   00000C6B  A$characters$2223                  characters
C:   00000C6C  A$characters$2224                  characters
C:   00000C6D  A$characters$2225                  characters
C:   00000C6E  A$characters$2226                  characters
C:   00000C6F  A$characters$2227                  characters
C:   00000C70  A$characters$2228                  characters
C:   00000C71  A$characters$2229                  characters
C:   00000C72  A$characters$2230                  characters
C:   00000C73  A$characters$2231                  characters
C:   00000C74  A$characters$2232                  characters
C:   00000C75  A$characters$2233                  characters
C:   00000C76  A$characters$2234                  characters
C:   00000C77  A$characters$2235                  characters
C:   00000C79  A$characters$2236                  characters
C:   00000C7B  A$characters$2237                  characters
C:   00000C7C  A$characters$2238                  characters
C:   00000C7E  A$characters$2239                  characters
C:   00000C80  A$characters$2240                  characters
C:   00000C81  A$characters$2241                  characters
C:   00000C82  A$characters$2242                  characters
C:   00000C83  A$characters$2243                  characters
C:   00000C84  A$characters$2246                  characters
C:   00000C84  C$characters.c$201$5_0$72          characters
C:   00000C87  A$characters$2247                  characters
C:   00000C88  A$characters$2248                  characters
C:   00000C8A  A$characters$2249                  characters
C:   00000C8B  A$characters$2250                  characters
ASxxxx Linker V03.00 + NoICE + sdld,  page 62.
Hexadecimal  [32-Bits]

Area                                    Addr        Size        Decimal Bytes (Attributes)
--------------------------------        ----        ----        ------- ----- ------------
CSEG                                00000078    0000137E =        4990. bytes (REL,CON,CODE)

      Value  Global                              Global Defined In Module
      -----  --------------------------------   ------------------------
C:   00000C8C  A$characters$2251                  characters
C:   00000C8E  A$characters$2252                  characters
C:   00000C90  A$characters$2253                  characters
C:   00000C92  A$characters$2254                  characters
C:   00000C94  A$characters$2255                  characters
C:   00000C96  A$characters$2256                  characters
C:   00000C99  A$characters$2257                  characters
C:   00000C9B  A$characters$2258                  characters
C:   00000C9D  A$characters$2259                  characters
C:   00000C9F  A$characters$2262                  characters
C:   00000C9F  C$characters.c$196$4_0$71          characters
C:   00000CA2  A$characters$2263                  characters
C:   00000CA3  A$characters$2264                  characters
C:   00000CA5  A$characters$2265                  characters
C:   00000CA6  A$characters$2266                  characters
C:   00000CA7  A$characters$2267                  characters
C:   00000CA8  A$characters$2268                  characters
C:   00000CAA  A$characters$2269                  characters
C:   00000CAB  A$characters$2270                  characters
C:   00000CAE  A$characters$2278                  characters
C:   00000CAE  C$characters.c$208$1_0$45          characters
C:   00000CAE  C$characters.c$209$1_0$45          characters
C:   00000CAE  XG$enter_characters$0$0            characters
C:   00000CAF  A$main$807                         main
C:   00000CAF  C$main.c$30$0_0$43                 main
C:   00000CAF  C$main.c$32$1_0$43                 main
C:   00000CAF  Fcharacters$__str_1$0_0$0          characters
C:   00000CAF  Fcharacters$__str_10$0_0$0         characters
C:   00000CAF  Fcharacters$__str_11$0_0$0         characters
C:   00000CAF  Fcharacters$__str_12$0_0$0         characters
C:   00000CAF  Fcharacters$__str_13$0_0$0         characters
C:   00000CAF  Fcharacters$__str_14$0_0$0         characters
C:   00000CAF  Fcharacters$__str_15$0_0$0         characters
C:   00000CAF  Fcharacters$__str_16$0_0$0         characters
C:   00000CAF  Fcharacters$__str_17$0_0$0         characters
C:   00000CAF  Fcharacters$__str_18$0_0$0         characters
C:   00000CAF  Fcharacters$__str_19$0_0$0         characters
C:   00000CAF  Fcharacters$__str_2$0_0$0          characters
C:   00000CAF  Fcharacters$__str_20$0_0$0         characters
C:   00000CAF  Fcharacters$__str_21$0_0$0         characters
C:   00000CAF  Fcharacters$__str_22$0_0$0         characters
C:   00000CAF  Fcharacters$__str_23$0_0$0         characters
C:   00000CAF  Fcharacters$__str_24$0_0$0         characters
C:   00000CAF  Fcharacters$__str_25$0_0$0         characters
C:   00000CAF  Fcharacters$__str_26$0_0$0         characters
C:   00000CAF  Fcharacters$__str_27$0_0$0         characters
C:   00000CAF  Fcharacters$__str_28$0_0$0         characters
C:   00000CAF  Fcharacters$__str_29$0_0$0         characters
C:   00000CAF  Fcharacters$__str_3$0_0$0          characters
C:   00000CAF  Fcharacters$__str_30$0_0$0         characters
C:   00000CAF  Fcharacters$__str_31$0_0$0         characters
ASxxxx Linker V03.00 + NoICE + sdld,  page 63.
Hexadecimal  [32-Bits]

Area                                    Addr        Size        Decimal Bytes (Attributes)
--------------------------------        ----        ----        ------- ----- ------------
CSEG                                00000078    0000137E =        4990. bytes (REL,CON,CODE)

      Value  Global                              Global Defined In Module
      -----  --------------------------------   ------------------------
C:   00000CAF  Fcharacters$__str_32$0_0$0         characters
C:   00000CAF  Fcharacters$__str_33$0_0$0         characters
C:   00000CAF  Fcharacters$__str_34$0_0$0         characters
C:   00000CAF  Fcharacters$__str_35$0_0$0         characters
C:   00000CAF  Fcharacters$__str_36$0_0$0         characters
C:   00000CAF  Fcharacters$__str_37$0_0$0         characters
C:   00000CAF  Fcharacters$__str_38$0_0$0         characters
C:   00000CAF  Fcharacters$__str_39$0_0$0         characters
C:   00000CAF  Fcharacters$__str_4$0_0$0          characters
C:   00000CAF  Fcharacters$__str_5$0_0$0          characters
C:   00000CAF  Fcharacters$__str_6$0_0$0          characters
C:   00000CAF  Fcharacters$__str_7$0_0$0          characters
C:   00000CAF  Fcharacters$__str_8$0_0$0          characters
C:   00000CAF  Fcharacters$__str_9$0_0$0          characters
C:   00000CAF  G$_sdcc_external_startup$0$0       main
C:   00000CAF  __sdcc_external_startup            main
C:   00000CB2  A$main$810                         main
C:   00000CB2  C$main.c$33$1_0$43                 main
C:   00000CB5  A$main$813                         main
C:   00000CB5  C$main.c$34$1_0$43                 main
C:   00000CB8  A$main$818                         main
C:   00000CB8  C$main.c$35$1_0$43                 main
C:   00000CB8  XG$_sdcc_external_startup$0$0      main
C:   00000CB9  A$main$831                         main
C:   00000CB9  C$main.c$42$1_0$45                 main
C:   00000CB9  C$main.c$44$1_0$45                 main
C:   00000CB9  G$Serial_Init$0$0                  main
C:   00000CB9  _Serial_Init                       main
C:   00000CBC  A$main$834                         main
C:   00000CBC  C$main.c$45$1_0$45                 main
C:   00000CBF  A$main$837                         main
C:   00000CBF  C$main.c$46$1_0$45                 main
C:   00000CC2  A$main$840                         main
C:   00000CC2  C$main.c$47$1_0$45                 main
C:   00000CC5  A$main$844                         main
C:   00000CC5  C$main.c$48$1_0$45                 main
C:   00000CC7  A$main$849                         main
C:   00000CC7  C$main.c$49$1_0$45                 main
C:   00000CC7  XG$Serial_Init$0$0                 main
C:   00000CC8  A$main$865                         main
C:   00000CC8  C$main.c$55$1_0$46                 main
C:   00000CC8  C$main.c$57$1_0$46                 main
C:   00000CC8  G$main$0$0                         main
C:   00000CC8  _main                              main
C:   00000CCB  A$main$868                         main
C:   00000CCB  C$main.c$61$1_1$47                 main
C:   00000CCE  A$main$869                         main
C:   00000CD0  A$main$870                         main
C:   00000CD2  A$main$871                         main
C:   00000CD5  A$main$872                         main
C:   00000CD6  A$main$873                         main
ASxxxx Linker V03.00 + NoICE + sdld,  page 64.
Hexadecimal  [32-Bits]

Area                                    Addr        Size        Decimal Bytes (Attributes)
--------------------------------        ----        ----        ------- ----- ------------
CSEG                                00000078    0000137E =        4990. bytes (REL,CON,CODE)

      Value  Global                              Global Defined In Module
      -----  --------------------------------   ------------------------
C:   00000CD7  A$main$874                         main
C:   00000CD8  A$main$875                         main
C:   00000CD9  A$main$876                         main
C:   00000CDA  A$main$879                         main
C:   00000CDA  C$main.c$63$1_1$47                 main
C:   00000CDC  A$main$880                         main
C:   00000CDE  A$main$881                         main
C:   00000CE1  A$main$882                         main
C:   00000CE3  A$main$883                         main
C:   00000CE5  A$main$884                         main
C:   00000CE8  A$main$885                         main
C:   00000CE9  A$main$886                         main
C:   00000CEA  A$main$887                         main
C:   00000CEB  A$main$888                         main
C:   00000CEC  A$main$889                         main
C:   00000CED  A$main$892                         main
C:   00000CED  C$main.c$64$1_1$47                 main
C:   00000CEF  A$main$893                         main
C:   00000CF1  A$main$894                         main
C:   00000CF4  A$main$895                         main
C:   00000CF5  A$main$896                         main
C:   00000CF6  A$main$897                         main
C:   00000CF7  A$main$898                         main
C:   00000CF8  A$main$899                         main
C:   00000CF9  A$main$902                         main
C:   00000CF9  C$main.c$66$1_1$47                 main
C:   00000CFA  A$main$903                         main
C:   00000CFB  A$main$904                         main
C:   00000CFD  A$main$907                         main
C:   00000CFD  C$main.c$68$2_1$48                 main
C:   00000CFF  A$main$908                         main
C:   00000D01  A$main$909                         main
C:   00000D03  A$main$910                         main
C:   00000D05  A$main$911                         main
C:   00000D08  A$main$912                         main
C:   00000D0A  A$main$913                         main
C:   00000D0C  A$main$916                         main
C:   00000D0C  C$main.c$69$2_1$48                 main
C:   00000D0F  A$main$917                         main
C:   00000D10  A$main$918                         main
C:   00000D12  A$main$919                         main
C:   00000D13  A$main$920                         main
C:   00000D14  A$main$921                         main
C:   00000D16  A$main$922                         main
C:   00000D18  A$main$923                         main
C:   00000D1A  A$main$924                         main
C:   00000D1C  A$main$925                         main
C:   00000D1E  A$main$926                         main
C:   00000D21  A$main$927                         main
C:   00000D23  A$main$928                         main
C:   00000D25  A$main$929                         main
ASxxxx Linker V03.00 + NoICE + sdld,  page 65.
Hexadecimal  [32-Bits]

Area                                    Addr        Size        Decimal Bytes (Attributes)
--------------------------------        ----        ----        ------- ----- ------------
CSEG                                00000078    0000137E =        4990. bytes (REL,CON,CODE)

      Value  Global                              Global Defined In Module
      -----  --------------------------------   ------------------------
C:   00000D27  A$main$933                         main
C:   00000D27  C$main.c$72$1_1$47                 main
C:   00000D2A  A$main$934                         main
C:   00000D2B  A$main$935                         main
C:   00000D2C  A$main$936                         main
C:   00000D2D  A$main$937                         main
C:   00000D2E  A$main$938                         main
C:   00000D2F  A$main$939                         main
C:   00000D31  A$main$940                         main
C:   00000D33  A$main$941                         main
C:   00000D36  A$main$942                         main
C:   00000D38  A$main$943                         main
C:   00000D3A  A$main$944                         main
C:   00000D3D  A$main$945                         main
C:   00000D3E  A$main$946                         main
C:   00000D3F  A$main$947                         main
C:   00000D40  A$main$948                         main
C:   00000D41  A$main$949                         main
C:   00000D42  A$main$952                         main
C:   00000D42  C$main.c$73$1_1$47                 main
C:   00000D44  A$main$953                         main
C:   00000D46  A$main$954                         main
C:   00000D49  A$main$955                         main
C:   00000D4A  A$main$956                         main
C:   00000D4B  A$main$957                         main
C:   00000D4C  A$main$958                         main
C:   00000D4D  A$main$959                         main
C:   00000D4E  A$main$962                         main
C:   00000D4E  C$main.c$75$1_1$47                 main
C:   00000D4F  A$main$963                         main
C:   00000D50  A$main$964                         main
C:   00000D52  A$main$967                         main
C:   00000D52  C$main.c$77$2_1$49                 main
C:   00000D54  A$main$968                         main
C:   00000D56  A$main$969                         main
C:   00000D58  A$main$970                         main
C:   00000D5A  A$main$971                         main
C:   00000D5D  A$main$972                         main
C:   00000D5F  A$main$973                         main
C:   00000D61  A$main$976                         main
C:   00000D61  C$main.c$78$2_1$49                 main
C:   00000D64  A$main$977                         main
C:   00000D65  A$main$978                         main
C:   00000D67  A$main$979                         main
C:   00000D68  A$main$980                         main
C:   00000D69  A$main$981                         main
C:   00000D6B  A$main$982                         main
C:   00000D6D  A$main$983                         main
C:   00000D6F  A$main$984                         main
C:   00000D71  A$main$985                         main
C:   00000D73  A$main$986                         main
ASxxxx Linker V03.00 + NoICE + sdld,  page 66.
Hexadecimal  [32-Bits]

Area                                    Addr        Size        Decimal Bytes (Attributes)
--------------------------------        ----        ----        ------- ----- ------------
CSEG                                00000078    0000137E =        4990. bytes (REL,CON,CODE)

      Value  Global                              Global Defined In Module
      -----  --------------------------------   ------------------------
C:   00000D76  A$main$987                         main
C:   00000D78  A$main$988                         main
C:   00000D7A  A$main$989                         main
C:   00000D7C  A$main$993                         main
C:   00000D7C  C$main.c$81$1_1$46                 main
C:   00000D7E  A$main$994                         main
C:   00000D80  A$main$998                         main
C:   00000D80  C$main.c$83$2_1$50                 main
C:   00000D82  A$main$999                         main
C:   00000D84  A$main$1000                        main
C:   00000D86  A$main$1001                        main
C:   00000D88  A$main$1002                        main
C:   00000D8A  A$main$1003                        main
C:   00000D8C  A$main$1004                        main
C:   00000D8F  A$main$1005                        main
C:   00000D91  A$main$1006                        main
C:   00000D93  A$main$1009                        main
C:   00000D93  C$main.c$84$2_1$50                 main
C:   00000D95  A$main$1010                        main
C:   00000D97  A$main$1011                        main
C:   00000D99  A$main$1012                        main
C:   00000D9B  A$main$1013                        main
C:   00000D9E  A$main$1014                        main
C:   00000DA0  A$main$1015                        main
C:   00000DA2  A$main$1018                        main
C:   00000DA2  C$main.c$85$2_1$50                 main
C:   00000DA4  A$main$1019                        main
C:   00000DA6  A$main$1020                        main
C:   00000DA8  A$main$1021                        main
C:   00000DAA  A$main$1022                        main
C:   00000DAD  A$main$1023                        main
C:   00000DAF  A$main$1024                        main
C:   00000DB1  A$main$1027                        main
C:   00000DB1  C$main.c$86$2_1$50                 main
C:   00000DB3  A$main$1028                        main
C:   00000DB5  A$main$1029                        main
C:   00000DB7  A$main$1030                        main
C:   00000DB9  A$main$1031                        main
C:   00000DBC  A$main$1032                        main
C:   00000DBE  A$main$1033                        main
C:   00000DC0  A$main$1036                        main
C:   00000DC0  C$main.c$87$2_1$50                 main
C:   00000DC2  A$main$1037                        main
C:   00000DC4  A$main$1038                        main
C:   00000DC6  A$main$1039                        main
C:   00000DC8  A$main$1040                        main
C:   00000DCB  A$main$1041                        main
C:   00000DCD  A$main$1042                        main
C:   00000DCF  A$main$1045                        main
C:   00000DCF  C$main.c$88$2_1$50                 main
C:   00000DD1  A$main$1046                        main
ASxxxx Linker V03.00 + NoICE + sdld,  page 67.
Hexadecimal  [32-Bits]

Area                                    Addr        Size        Decimal Bytes (Attributes)
--------------------------------        ----        ----        ------- ----- ------------
CSEG                                00000078    0000137E =        4990. bytes (REL,CON,CODE)

      Value  Global                              Global Defined In Module
      -----  --------------------------------   ------------------------
C:   00000DD3  A$main$1047                        main
C:   00000DD5  A$main$1048                        main
C:   00000DD7  A$main$1049                        main
C:   00000DDA  A$main$1050                        main
C:   00000DDC  A$main$1051                        main
C:   00000DDE  A$main$1054                        main
C:   00000DDE  C$main.c$89$2_1$50                 main
C:   00000DE0  A$main$1055                        main
C:   00000DE2  A$main$1056                        main
C:   00000DE4  A$main$1057                        main
C:   00000DE6  A$main$1058                        main
C:   00000DE9  A$main$1059                        main
C:   00000DEB  A$main$1060                        main
C:   00000DED  A$main$1063                        main
C:   00000DED  C$main.c$90$2_1$50                 main
C:   00000DEF  A$main$1064                        main
C:   00000DF1  A$main$1065                        main
C:   00000DF3  A$main$1066                        main
C:   00000DF5  A$main$1067                        main
C:   00000DF8  A$main$1068                        main
C:   00000DFA  A$main$1069                        main
C:   00000DFC  A$main$1072                        main
C:   00000DFC  C$main.c$91$2_1$50                 main
C:   00000DFE  A$main$1073                        main
C:   00000E00  A$main$1074                        main
C:   00000E02  A$main$1075                        main
C:   00000E04  A$main$1076                        main
C:   00000E07  A$main$1077                        main
C:   00000E09  A$main$1078                        main
C:   00000E0B  A$main$1081                        main
C:   00000E0B  C$main.c$93$2_1$50                 main
C:   00000E0D  A$main$1082                        main
C:   00000E0F  A$main$1083                        main
C:   00000E11  A$main$1084                        main
C:   00000E13  A$main$1085                        main
C:   00000E16  A$main$1086                        main
C:   00000E18  A$main$1087                        main
C:   00000E1A  A$main$1090                        main
C:   00000E1A  C$main.c$94$2_1$50                 main
C:   00000E1D  A$main$1091                        main
C:   00000E1F  A$main$1092                        main
C:   00000E21  A$main$1093                        main
C:   00000E24  A$main$1094                        main
C:   00000E25  A$main$1095                        main
C:   00000E26  A$main$1096                        main
C:   00000E27  A$main$1097                        main
C:   00000E28  A$main$1098                        main
C:   00000E29  A$main$1101                        main
C:   00000E29  C$main.c$95$2_1$50                 main
C:   00000E2C  A$main$1102                        main
C:   00000E2D  A$main$1103                        main
ASxxxx Linker V03.00 + NoICE + sdld,  page 68.
Hexadecimal  [32-Bits]

Area                                    Addr        Size        Decimal Bytes (Attributes)
--------------------------------        ----        ----        ------- ----- ------------
CSEG                                00000078    0000137E =        4990. bytes (REL,CON,CODE)

      Value  Global                              Global Defined In Module
      -----  --------------------------------   ------------------------
C:   00000E2F  A$main$1104                        main
C:   00000E30  A$main$1105                        main
C:   00000E31  A$main$1106                        main
C:   00000E32  A$main$1107                        main
C:   00000E34  A$main$1108                        main
C:   00000E35  A$main$1111                        main
C:   00000E35  C$main.c$96$2_1$50                 main
C:   00000E37  A$main$1112                        main
C:   00000E39  A$main$1113                        main
C:   00000E3C  A$main$1116                        main
C:   00000E3C  C$main.c$98$2_1$50                 main
C:   00000E3F  A$main$1117                        main
C:   00000E40  A$main$1118                        main
C:   00000E42  A$main$1119                        main
C:   00000E43  A$main$1120                        main
C:   00000E44  A$main$1121                        main
C:   00000E46  A$main$1122                        main
C:   00000E48  A$main$1123                        main
C:   00000E4A  A$main$1124                        main
C:   00000E4C  A$main$1125                        main
C:   00000E4E  A$main$1126                        main
C:   00000E51  A$main$1127                        main
C:   00000E53  A$main$1128                        main
C:   00000E55  A$main$1129                        main
C:   00000E57  A$main$1130                        main
C:   00000E59  A$main$1131                        main
C:   00000E5B  A$main$1134                        main
C:   00000E5B  C$main.c$101$2_1$50                main
C:   00000E5E  A$main$1135                        main
C:   00000E5F  A$main$1136                        main
C:   00000E60  A$main$1137                        main
C:   00000E61  A$main$1138                        main
C:   00000E62  A$main$1139                        main
C:   00000E63  A$main$1140                        main
C:   00000E65  A$main$1141                        main
C:   00000E67  A$main$1142                        main
C:   00000E68  A$main$1143                        main
C:   00000E69  A$main$1144                        main
C:   00000E6A  A$main$1145                        main
C:   00000E6B  A$main$1146                        main
C:   00000E6C  A$main$1147                        main
C:   00000E6E  A$main$1148                        main
C:   00000E71  A$main$1150                        main
C:   00000E74  A$main$1151                        main
C:   00000E75  A$main$1152                        main
C:   00000E76  A$main$1153                        main
C:   00000E77  A$main$1154                        main
C:   00000E78  A$main$1155                        main
C:   00000E79  A$main$1156                        main
C:   00000E7A  A$main$1157                        main
C:   00000E7B  A$main$1158                        main
ASxxxx Linker V03.00 + NoICE + sdld,  page 69.
Hexadecimal  [32-Bits]

Area                                    Addr        Size        Decimal Bytes (Attributes)
--------------------------------        ----        ----        ------- ----- ------------
CSEG                                00000078    0000137E =        4990. bytes (REL,CON,CODE)

      Value  Global                              Global Defined In Module
      -----  --------------------------------   ------------------------
C:   00000E7D  A$main$1159                        main
C:   00000E7E  A$main$1160                        main
C:   00000E80  A$main$1161                        main
C:   00000E82  A$main$1162                        main
C:   00000E84  A$main$1163                        main
C:   00000E87  A$main$1165                        main
C:   00000E88  A$main$1166                        main
C:   00000E8A  A$main$1167                        main
C:   00000E8B  A$main$1168                        main
C:   00000E8D  A$main$1169                        main
C:   00000E8F  A$main$1170                        main
C:   00000E92  A$main$1171                        main
C:   00000E94  A$main$1172                        main
C:   00000E96  A$main$1173                        main
C:   00000E99  A$main$1177                        main
C:   00000E99  C$main.c$103$3_1$51                main
C:   00000E9C  A$main$1178                        main
C:   00000E9D  A$main$1179                        main
C:   00000E9F  A$main$1180                        main
C:   00000EA0  A$main$1181                        main
C:   00000EA1  A$main$1182                        main
C:   00000EA2  A$main$1183                        main
C:   00000EA4  A$main$1184                        main
C:   00000EA5  A$main$1187                        main
C:   00000EA5  C$main.c$104$3_1$51                main
C:   00000EA8  A$main$1188                        main
C:   00000EA9  A$main$1189                        main
C:   00000EAA  A$main$1190                        main
C:   00000EAB  A$main$1191                        main
C:   00000EAC  A$main$1192                        main
C:   00000EAD  A$main$1193                        main
C:   00000EAE  A$main$1194                        main
C:   00000EAF  A$main$1195                        main
C:   00000EB1  A$main$1196                        main
C:   00000EB2  A$main$1197                        main
C:   00000EB3  A$main$1198                        main
C:   00000EB5  A$main$1199                        main
C:   00000EB6  A$main$1200                        main
C:   00000EB7  A$main$1203                        main
C:   00000EB7  C$main.c$105$3_2$52                main
C:   00000EBA  A$main$1204                        main
C:   00000EBB  A$main$1205                        main
C:   00000EBC  A$main$1206                        main
C:   00000EBD  A$main$1207                        main
C:   00000EBE  A$main$1208                        main
C:   00000EBF  A$main$1209                        main
C:   00000EC0  A$main$1210                        main
C:   00000EC1  A$main$1211                        main
C:   00000EC2  A$main$1212                        main
C:   00000EC3  A$main$1213                        main
C:   00000EC4  A$main$1214                        main
ASxxxx Linker V03.00 + NoICE + sdld,  page 70.
Hexadecimal  [32-Bits]

Area                                    Addr        Size        Decimal Bytes (Attributes)
--------------------------------        ----        ----        ------- ----- ------------
CSEG                                00000078    0000137E =        4990. bytes (REL,CON,CODE)

      Value  Global                              Global Defined In Module
      -----  --------------------------------   ------------------------
C:   00000EC5  A$main$1215                        main
C:   00000EC8  A$main$1216                        main
C:   00000EC9  A$main$1217                        main
C:   00000ECA  A$main$1218                        main
C:   00000ECB  A$main$1219                        main
C:   00000ECC  A$main$1220                        main
C:   00000ECD  A$main$1221                        main
C:   00000ECE  A$main$1222                        main
C:   00000ECF  A$main$1223                        main
C:   00000ED0  A$main$1226                        main
C:   00000ED0  C$main.c$106$3_2$52                main
C:   00000ED1  A$main$1227                        main
C:   00000ED4  A$main$1228                        main
C:   00000ED5  A$main$1232                        main
C:   00000ED5  C$main.c$107$3_2$52                main
C:   00000ED7  A$main$1233                        main
C:   00000ED9  A$main$1234                        main
C:   00000EDC  A$main$1235                        main
C:   00000EDD  A$main$1236                        main
C:   00000EDF  A$main$1237                        main
C:   00000EE0  A$main$1238                        main
C:   00000EE1  A$main$1239                        main
C:   00000EE3  A$main$1240                        main
C:   00000EE4  A$main$1241                        main
C:   00000EE5  A$main$1242                        main
C:   00000EE7  A$main$1243                        main
C:   00000EE9  A$main$1244                        main
C:   00000EEB  A$main$1245                        main
C:   00000EED  A$main$1246                        main
C:   00000EEF  A$main$1247                        main
C:   00000EF2  A$main$1248                        main
C:   00000EF4  A$main$1249                        main
C:   00000EF6  A$main$1250                        main
C:   00000EF8  A$main$1251                        main
C:   00000EFA  A$main$1252                        main
C:   00000EFC  A$main$1255                        main
C:   00000EFC  C$main.c$108$3_2$52                main
C:   00000EFE  A$main$1256                        main
C:   00000F00  A$main$1257                        main
C:   00000F02  A$main$1258                        main
C:   00000F04  A$main$1259                        main
C:   00000F06  A$main$1260                        main
C:   00000F08  A$main$1261                        main
C:   00000F0A  A$main$1262                        main
C:   00000F0C  A$main$1263                        main
C:   00000F0F  A$main$1264                        main
C:   00000F11  A$main$1265                        main
C:   00000F13  A$main$1266                        main
C:   00000F15  A$main$1267                        main
C:   00000F17  A$main$1268                        main
C:   00000F19  A$main$1269                        main
ASxxxx Linker V03.00 + NoICE + sdld,  page 71.
Hexadecimal  [32-Bits]

Area                                    Addr        Size        Decimal Bytes (Attributes)
--------------------------------        ----        ----        ------- ----- ------------
CSEG                                00000078    0000137E =        4990. bytes (REL,CON,CODE)

      Value  Global                              Global Defined In Module
      -----  --------------------------------   ------------------------
C:   00000F1C  A$main$1273                        main
C:   00000F1C  C$main.c$110$2_1$50                main
C:   00000F1F  A$main$1274                        main
C:   00000F20  A$main$1275                        main
C:   00000F21  A$main$1276                        main
C:   00000F22  A$main$1277                        main
C:   00000F23  A$main$1278                        main
C:   00000F24  A$main$1279                        main
C:   00000F26  A$main$1280                        main
C:   00000F28  A$main$1281                        main
C:   00000F29  A$main$1282                        main
C:   00000F2C  A$main$1283                        main
C:   00000F2D  A$main$1284                        main
C:   00000F30  A$main$1285                        main
C:   00000F33  A$main$1286                        main
C:   00000F34  A$main$1287                        main
C:   00000F35  A$main$1288                        main
C:   00000F36  A$main$1289                        main
C:   00000F37  A$main$1290                        main
C:   00000F38  A$main$1291                        main
C:   00000F3B  A$main$1292                        main
C:   00000F3E  A$main$1293                        main
C:   00000F40  A$main$1295                        main
C:   00000F43  A$main$1296                        main
C:   00000F46  A$main$1297                        main
C:   00000F48  A$main$1299                        main
C:   00000F4B  A$main$1300                        main
C:   00000F4E  A$main$1301                        main
C:   00000F50  A$main$1303                        main
C:   00000F53  A$main$1304                        main
C:   00000F56  A$main$1305                        main
C:   00000F58  A$main$1307                        main
C:   00000F5B  A$main$1308                        main
C:   00000F5E  A$main$1309                        main
C:   00000F60  A$main$1311                        main
C:   00000F61  A$main$1312                        main
C:   00000F62  A$main$1313                        main
C:   00000F64  A$main$1314                        main
C:   00000F65  A$main$1315                        main
C:   00000F67  A$main$1316                        main
C:   00000F69  A$main$1317                        main
C:   00000F6B  A$main$1318                        main
C:   00000F6D  A$main$1319                        main
C:   00000F6E  A$main$1320                        main
C:   00000F70  A$main$1321                        main
C:   00000F72  A$main$1322                        main
C:   00000F75  A$main$1323                        main
C:   00000F77  A$main$1324                        main
C:   00000F79  A$main$1327                        main
C:   00000F79  C$main.c$112$3_1$53                main
C:   00000F7B  A$main$1328                        main
ASxxxx Linker V03.00 + NoICE + sdld,  page 72.
Hexadecimal  [32-Bits]

Area                                    Addr        Size        Decimal Bytes (Attributes)
--------------------------------        ----        ----        ------- ----- ------------
CSEG                                00000078    0000137E =        4990. bytes (REL,CON,CODE)

      Value  Global                              Global Defined In Module
      -----  --------------------------------   ------------------------
C:   00000F7D  A$main$1329                        main
C:   00000F7F  A$main$1330                        main
C:   00000F81  A$main$1331                        main
C:   00000F84  A$main$1334                        main
C:   00000F84  C$main.c$113$3_1$53                main
C:   00000F86  A$main$1335                        main
C:   00000F88  A$main$1336                        main
C:   00000F8A  A$main$1337                        main
C:   00000F8C  A$main$1338                        main
C:   00000F8F  A$main$1339                        main
C:   00000F91  A$main$1340                        main
C:   00000F93  A$main$1341                        main
C:   00000F95  A$main$1342                        main
C:   00000F97  A$main$1343                        main
C:   00000F9A  A$main$1347                        main
C:   00000F9A  C$main.c$117$2_1$50                main
C:   00000F9D  A$main$1348                        main
C:   00000F9E  A$main$1349                        main
C:   00000F9F  A$main$1350                        main
C:   00000FA0  A$main$1351                        main
C:   00000FA1  A$main$1352                        main
C:   00000FA2  A$main$1353                        main
C:   00000FA4  A$main$1354                        main
C:   00000FA6  A$main$1355                        main
C:   00000FA8  A$main$1356                        main
C:   00000FAA  A$main$1357                        main
C:   00000FAD  A$main$1358                        main
C:   00000FAF  A$main$1359                        main
C:   00000FB1  A$main$1360                        main
C:   00000FB4  A$main$1365                        main
C:   00000FB4  C$main.c$119$1_1$46                main
C:   00000FB4  XG$main$0$0                        main
C:   00000FB5  Fmain$__str_1$0_0$0                main
C:   00000FB5  Fmain$__str_10$0_0$0               main
C:   00000FB5  Fmain$__str_11$0_0$0               main
C:   00000FB5  Fmain$__str_12$0_0$0               main
C:   00000FB5  Fmain$__str_13$0_0$0               main
C:   00000FB5  Fmain$__str_14$0_0$0               main
C:   00000FB5  Fmain$__str_15$0_0$0               main
C:   00000FB5  Fmain$__str_16$0_0$0               main
C:   00000FB5  Fmain$__str_2$0_0$0                main
C:   00000FB5  Fmain$__str_3$0_0$0                main
C:   00000FB5  Fmain$__str_4$0_0$0                main
C:   00000FB5  Fmain$__str_5$0_0$0                main
C:   00000FB5  Fmain$__str_6$0_0$0                main
C:   00000FB5  Fmain$__str_7$0_0$0                main
C:   00000FB5  Fmain$__str_8$0_0$0                main
C:   00000FB5  Fmain$__str_9$0_0$0                main
C:   00000FB5  _free                              free
C:   0000110C  _printf_tiny                       printf_tiny
C:   00001215  ___sdcc_heap_init                  malloc
ASxxxx Linker V03.00 + NoICE + sdld,  page 73.
Hexadecimal  [32-Bits]

Area                                    Addr        Size        Decimal Bytes (Attributes)
--------------------------------        ----        ----        ------- ----- ------------
CSEG                                00000078    0000137E =        4990. bytes (REL,CON,CODE)

      Value  Global                              Global Defined In Module
      -----  --------------------------------   ------------------------
C:   00001251  _malloc                            malloc
C:   000013BA  __mulint                           _mulint
C:   000013DA  __gptrget                          _gptrget

ASxxxx Linker V03.00 + NoICE + sdld,  page 74.
Hexadecimal  [32-Bits]

Area                                    Addr        Size        Decimal Bytes (Attributes)
--------------------------------        ----        ----        ------- ----- ------------
CONST                               000013F6    00000A03 =        2563. bytes (REL,CON,CODE)

      Value  Global                              Global Defined In Module
      -----  --------------------------------   ------------------------
C:   000013F6  Fbuffer_inputs$__str_0$0_0$0       buffer_inputs
C:   000015CC  Fcharacters$__str_0$0_0$0          characters
C:   00001AFE  G$__sdcc_heap_size$0_0$0           heap
C:   00001AFE  ___sdcc_heap_size                  heap
C:   00001B00  Fmain$__str_0$0_0$0                main

ASxxxx Linker V03.00 + NoICE + sdld,  page 75.
Hexadecimal  [32-Bits]

Area                                    Addr        Size        Decimal Bytes (Attributes)
--------------------------------        ----        ----        ------- ----- ------------
XINIT                               00001DF9    00000006 =           6. bytes (REL,CON,CODE)

      Value  Global                              Global Defined In Module
      -----  --------------------------------   ------------------------
C:   00001DF9  Fmain$__xinit_heap1$0_0$0          main
C:   00001DFB  Fmain$__xinit_total_ch$0_0$0       main
C:   00001DFD  Fmain$__xinit_storage$0_0$0        main
ASxxxx Linker V03.00 + NoICE + sdld,  page 76.

Files Linked                              [ module(s) ]

obj\Debug\buffer_inputs.rel               [  ]
obj\Debug\characters.rel                  [  ]
obj\Debug\heap.rel                        [  ]
obj\Debug\main.rel                        [  ]


Libraries Linked                          [ object file ]

D:\SDCC\bin\..\lib\large/libsdcc.lib      [ free.rel ]
D:\SDCC\bin\..\lib\large/mcs51.lib        [ crtclear.rel ]
D:\SDCC\bin\..\lib\large/mcs51.lib        [ crtxinit.rel ]
D:\SDCC\bin\..\lib\large/libsdcc.lib      [ printf_tiny.rel ]
D:\SDCC\bin\..\lib\large/libsdcc.lib      [ malloc.rel ]
D:\SDCC\bin\..\lib\large/libint.lib       [ _mulint.rel ]
D:\SDCC\bin\..\lib\large/mcs51.lib        [ crtxclear.rel ]
D:\SDCC\bin\..\lib\large/libsdcc.lib      [ _bp.rel ]
D:\SDCC\bin\..\lib\large/mcs51.lib        [ crtpagesfr.rel ]
D:\SDCC\bin\..\lib\large/mcs51.lib        [ crtstart.rel ]
D:\SDCC\bin\..\lib\large/libsdcc.lib      [ _gptrget.rel ]

ASxxxx Linker V03.00 + NoICE + sdld,  page 77.

User Base Address Definitions

HOME = 0x0000
ISEG = 0x0000
BSEG = 0x0000

